(i__main__
QAPMatrix
p0
(dp1
S'matrix'
p2
(imatrix
Matrix
p3
(dp4
S'm'
p5
(lp6
(lp7
F0.77739962859909451
aF0.57771287372450431
aF0.056567818900056799
aF0.88146725876565324
aF0.20242935737010548
aa(lp8
F0.27268838976265886
aF0.26317098633796965
aF0.70615651799796841
aF0.19063585396770477
aF0.66238011505351191
aa(lp9
F0.16000241101185475
aF0.83674445558780675
aF0.32297074263967596
aF0.43030811233596478
aF0.48294416411604268
aa(lp10
F0.63120299413095238
aF0.89445530676549356
aF0.5095432544399936
aF0.0084709756660519275
aF0.7501531561421112
aa(lp11
F0.41922789236554558
aF0.97235101305792049
aF0.33964245988567121
aF0.0019248358789031306
aF0.70758246203111375
aasbsb.