(i__main__
QAPMatrix
p0
(dp1
S'matrix'
p2
(imatrix
Matrix
p3
(dp4
S'm'
p5
(lp6
(lp7
F0.86796866938637085
aF0.020964067408684506
aF0.27783533283248507
aF0.2385980040531156
aa(lp8
F0.98071602637416944
aF0.89963455734190478
aF0.73038359427363309
aF0.14409488828480865
aa(lp9
F0.7930000804329852
aF0.49701198771018162
aF0.27518286112043622
aF0.24302569824344034
aa(lp10
F0.098236434875445866
aF0.0064340902055707305
aF0.18348201751157078
aF0.92846233450392479
aasbsb.