(i__main__
QAPMatrix
p0
(dp1
S'matrix'
p2
(imatrix
Matrix
p3
(dp4
S'm'
p5
(lp6
(lp7
F0.37974498398884005
aF0.66022133445925679
aF0.60627283480306116
aF0.7699182093921475
aF0.89213157708458113
aa(lp8
F0.56710025658480523
aF0.26123830823981109
aF0.19976112024584103
aF0.77484533390282118
aF0.44191910257312916
aa(lp9
F0.12751563222558659
aF0.83937379771700882
aF0.12926909509826245
aF0.27219882030441878
aF0.78052566936387002
aa(lp10
F0.521604618530638
aF0.32731787470526719
aF0.45685602310899898
aF0.6562126844117343
aF0.55025843756657944
aa(lp11
F0.17466561330046748
aF0.12087348628085415
aF0.046935559728142673
aF0.26769986212929409
aF0.69308360170034122
aasbsb.