(i__main__
QAPMatrix
p0
(dp1
S'matrix'
p2
(imatrix
Matrix
p3
(dp4
S'm'
p5
(lp6
(lp7
F0.19644225674032234
aF0.90596054802110659
aF0.49681839261482652
aF0.30245487634254009
aF0.54992912692508744
aa(lp8
F0.15629857984626894
aF0.52231330569806311
aF0.52890288299333477
aF0.93342464282366766
aF0.78697092980119632
aa(lp9
F0.45424033381134987
aF0.32340243488260145
aF0.27506534478690181
aF0.42358216642690616
aF0.29843729074586556
aa(lp10
F0.63147112995287979
aF0.058958582338838106
aF0.327484966216678
aF0.3776196752637736
aF0.99245983888615985
aa(lp11
F0.63911230347461145
aF0.2369790054709261
aF0.72220124764243721
aF0.37451984895462187
aF0.6933983596658122
aasbsb.