(i__main__
QAPMatrix
p0
(dp1
S'matrix'
p2
(imatrix
Matrix
p3
(dp4
S'm'
p5
(lp6
(lp7
F0.75795082388938129
aF0.15925093818297165
aF0.48962953730986225
aF0.79797756928240104
aF0.85167964664004037
aa(lp8
F0.2016147718240584
aF0.21779197648955329
aF0.39523990519224539
aF0.65048113298732657
aF0.39006176167259787
aa(lp9
F0.71100693683570193
aF0.40931455619900237
aF0.004058561394817306
aF0.54817952574902629
aF0.13248467770665462
aa(lp10
F0.54908931484488532
aF0.29904324986645203
aF0.71230062131210881
aF0.90022297356570891
aF0.98118698469780286
aa(lp11
F0.37475271553614253
aF0.89474832045606889
aF0.51586981928057474
aF0.72658547336477919
aF0.83519302038985499
aasbsb.