(i__main__
QAPMatrix
p0
(dp1
S'matrix'
p2
(imatrix
Matrix
p3
(dp4
S'm'
p5
(lp6
(lp7
F0.83461835331408596
aF0.42262560889345313
aF0.68781160301442745
aF0.40383388542901744
aa(lp8
F0.65193718826538383
aF0.075967638418588557
aF0.90695268981625976
aF0.52349651352294924
aa(lp9
F0.28994171404330538
aF0.4706169021199329
aF0.66361553639674342
aF0.10753569998083068
aa(lp10
F0.94622894319302631
aF0.94652461057246506
aF0.013438474876254158
aF0.22295134535002392
aasbsb.