(lp0
(iboxmodule
Box
p1
(dp2
S'color'
p3
(I146
I107
I22
tp4
sS'rect'
p5
cpygame
__rect_constructor
p6
(I0
I-29
I35
I29
tp7
Rp8
sS'surface'
p9
NsS'id'
p10
I0
sba(iboxmodule
Box
p11
(dp12
g3
(I127
I243
I197
tp13
sg5
g6
(I0
I-30
I61
I30
tp14
Rp15
sg9
Nsg10
I1
sba(iboxmodule
Box
p16
(dp17
g3
(I150
I180
I55
tp18
sg5
g6
(I0
I-45
I29
I45
tp19
Rp20
sg9
Nsg10
I2
sba(iboxmodule
Box
p21
(dp22
g3
(I115
I10
I246
tp23
sg5
g6
(I0
I-19
I39
I19
tp24
Rp25
sg9
Nsg10
I3
sba(iboxmodule
Box
p26
(dp27
g3
(I179
I176
I154
tp28
sg5
g6
(I0
I-57
I42
I57
tp29
Rp30
sg9
Nsg10
I4
sba(iboxmodule
Box
p31
(dp32
g3
(I57
I17
I104
tp33
sg5
g6
(I0
I-44
I55
I44
tp34
Rp35
sg9
Nsg10
I5
sba(iboxmodule
Box
p36
(dp37
g3
(I61
I199
I74
tp38
sg5
g6
(I0
I-20
I48
I20
tp39
Rp40
sg9
Nsg10
I6
sba(iboxmodule
Box
p41
(dp42
g3
(I57
I83
I174
tp43
sg5
g6
(I0
I-60
I57
I60
tp44
Rp45
sg9
Nsg10
I7
sba(iboxmodule
Box
p46
(dp47
g3
(I170
I103
I103
tp48
sg5
g6
(I0
I-61
I39
I61
tp49
Rp50
sg9
Nsg10
I8
sba(iboxmodule
Box
p51
(dp52
g3
(I105
I245
I57
tp53
sg5
g6
(I0
I-21
I23
I21
tp54
Rp55
sg9
Nsg10
I9
sba(iboxmodule
Box
p56
(dp57
g3
(I148
I60
I47
tp58
sg5
g6
(I0
I-53
I34
I53
tp59
Rp60
sg9
Nsg10
I10
sba(iboxmodule
Box
p61
(dp62
g3
(I207
I179
I55
tp63
sg5
g6
(I0
I-63
I41
I63
tp64
Rp65
sg9
Nsg10
I11
sba(iboxmodule
Box
p66
(dp67
g3
(I164
I46
I196
tp68
sg5
g6
(I0
I-44
I61
I44
tp69
Rp70
sg9
Nsg10
I12
sba(iboxmodule
Box
p71
(dp72
g3
(I111
I243
I81
tp73
sg5
g6
(I0
I-51
I52
I51
tp74
Rp75
sg9
Nsg10
I13
sba(iboxmodule
Box
p76
(dp77
g3
(I48
I147
I12
tp78
sg5
g6
(I0
I-47
I38
I47
tp79
Rp80
sg9
Nsg10
I14
sba(iboxmodule
Box
p81
(dp82
g3
(I44
I244
I165
tp83
sg5
g6
(I0
I-25
I64
I25
tp84
Rp85
sg9
Nsg10
I15
sba(iboxmodule
Box
p86
(dp87
g3
(I246
I98
I22
tp88
sg5
g6
(I0
I-17
I30
I17
tp89
Rp90
sg9
Nsg10
I16
sba(iboxmodule
Box
p91
(dp92
g3
(I27
I21
I78
tp93
sg5
g6
(I0
I-59
I48
I59
tp94
Rp95
sg9
Nsg10
I17
sba(iboxmodule
Box
p96
(dp97
g3
(I88
I43
I33
tp98
sg5
g6
(I0
I-62
I47
I62
tp99
Rp100
sg9
Nsg10
I18
sba(iboxmodule
Box
p101
(dp102
g3
(I125
I241
I5
tp103
sg5
g6
(I0
I-56
I37
I56
tp104
Rp105
sg9
Nsg10
I19
sba(iboxmodule
Box
p106
(dp107
g3
(I15
I175
I212
tp108
sg5
g6
(I0
I-33
I63
I33
tp109
Rp110
sg9
Nsg10
I20
sba(iboxmodule
Box
p111
(dp112
g3
(I216
I71
I57
tp113
sg5
g6
(I0
I-62
I28
I62
tp114
Rp115
sg9
Nsg10
I21
sba(iboxmodule
Box
p116
(dp117
g3
(I87
I181
I84
tp118
sg5
g6
(I0
I-37
I20
I37
tp119
Rp120
sg9
Nsg10
I22
sba(iboxmodule
Box
p121
(dp122
g3
(I89
I53
I158
tp123
sg5
g6
(I0
I-18
I59
I18
tp124
Rp125
sg9
Nsg10
I23
sba(iboxmodule
Box
p126
(dp127
g3
(I181
I29
I11
tp128
sg5
g6
(I0
I-20
I46
I20
tp129
Rp130
sg9
Nsg10
I24
sba(iboxmodule
Box
p131
(dp132
g3
(I223
I46
I66
tp133
sg5
g6
(I0
I-36
I61
I36
tp134
Rp135
sg9
Nsg10
I25
sba(iboxmodule
Box
p136
(dp137
g3
(I152
I218
I58
tp138
sg5
g6
(I0
I-54
I64
I54
tp139
Rp140
sg9
Nsg10
I26
sba(iboxmodule
Box
p141
(dp142
g3
(I126
I134
I88
tp143
sg5
g6
(I0
I-40
I45
I40
tp144
Rp145
sg9
Nsg10
I27
sba(iboxmodule
Box
p146
(dp147
g3
(I135
I254
I102
tp148
sg5
g6
(I0
I-44
I44
I44
tp149
Rp150
sg9
Nsg10
I28
sba(iboxmodule
Box
p151
(dp152
g3
(I152
I32
I105
tp153
sg5
g6
(I0
I-32
I17
I32
tp154
Rp155
sg9
Nsg10
I29
sba(iboxmodule
Box
p156
(dp157
g3
(I38
I185
I73
tp158
sg5
g6
(I0
I-35
I20
I35
tp159
Rp160
sg9
Nsg10
I30
sba(iboxmodule
Box
p161
(dp162
g3
(I203
I34
I252
tp163
sg5
g6
(I0
I-24
I54
I24
tp164
Rp165
sg9
Nsg10
I31
sba(iboxmodule
Box
p166
(dp167
g3
(I245
I69
I89
tp168
sg5
g6
(I0
I-33
I57
I33
tp169
Rp170
sg9
Nsg10
I32
sba(iboxmodule
Box
p171
(dp172
g3
(I67
I190
I196
tp173
sg5
g6
(I0
I-36
I41
I36
tp174
Rp175
sg9
Nsg10
I33
sba(iboxmodule
Box
p176
(dp177
g3
(I111
I50
I50
tp178
sg5
g6
(I0
I-24
I40
I24
tp179
Rp180
sg9
Nsg10
I34
sba(iboxmodule
Box
p181
(dp182
g3
(I142
I134
I145
tp183
sg5
g6
(I0
I-23
I24
I23
tp184
Rp185
sg9
Nsg10
I35
sba(iboxmodule
Box
p186
(dp187
g3
(I181
I170
I190
tp188
sg5
g6
(I0
I-57
I26
I57
tp189
Rp190
sg9
Nsg10
I36
sba(iboxmodule
Box
p191
(dp192
g3
(I162
I132
I141
tp193
sg5
g6
(I0
I-27
I46
I27
tp194
Rp195
sg9
Nsg10
I37
sba(iboxmodule
Box
p196
(dp197
g3
(I102
I172
I50
tp198
sg5
g6
(I0
I-42
I58
I42
tp199
Rp200
sg9
Nsg10
I38
sba(iboxmodule
Box
p201
(dp202
g3
(I207
I187
I113
tp203
sg5
g6
(I0
I-51
I59
I51
tp204
Rp205
sg9
Nsg10
I39
sba(iboxmodule
Box
p206
(dp207
g3
(I165
I243
I23
tp208
sg5
g6
(I0
I-32
I44
I32
tp209
Rp210
sg9
Nsg10
I40
sba(iboxmodule
Box
p211
(dp212
g3
(I249
I203
I64
tp213
sg5
g6
(I0
I-20
I58
I20
tp214
Rp215
sg9
Nsg10
I41
sba(iboxmodule
Box
p216
(dp217
g3
(I100
I174
I81
tp218
sg5
g6
(I0
I-46
I58
I46
tp219
Rp220
sg9
Nsg10
I42
sba(iboxmodule
Box
p221
(dp222
g3
(I74
I219
I242
tp223
sg5
g6
(I0
I-51
I54
I51
tp224
Rp225
sg9
Nsg10
I43
sba(iboxmodule
Box
p226
(dp227
g3
(I107
I156
I241
tp228
sg5
g6
(I0
I-46
I50
I46
tp229
Rp230
sg9
Nsg10
I44
sba(iboxmodule
Box
p231
(dp232
g3
(I189
I9
I28
tp233
sg5
g6
(I0
I-44
I20
I44
tp234
Rp235
sg9
Nsg10
I45
sba(iboxmodule
Box
p236
(dp237
g3
(I250
I184
I242
tp238
sg5
g6
(I0
I-56
I52
I56
tp239
Rp240
sg9
Nsg10
I46
sba(iboxmodule
Box
p241
(dp242
g3
(I154
I73
I113
tp243
sg5
g6
(I0
I-32
I20
I32
tp244
Rp245
sg9
Nsg10
I47
sba(iboxmodule
Box
p246
(dp247
g3
(I70
I138
I229
tp248
sg5
g6
(I0
I-37
I45
I37
tp249
Rp250
sg9
Nsg10
I48
sba(iboxmodule
Box
p251
(dp252
g3
(I61
I0
I72
tp253
sg5
g6
(I0
I-64
I35
I64
tp254
Rp255
sg9
Nsg10
I49
sba.