(lp0
(iboxmodule
Box
p1
(dp2
S'color'
p3
(I111
I238
I120
tp4
sS'rect'
p5
cpygame
__rect_constructor
p6
(I0
I-59
I38
I59
tp7
Rp8
sS'surface'
p9
NsS'id'
p10
I0
sba(iboxmodule
Box
p11
(dp12
g3
(I66
I81
I29
tp13
sg5
g6
(I0
I-51
I55
I51
tp14
Rp15
sg9
Nsg10
I1
sba(iboxmodule
Box
p16
(dp17
g3
(I240
I229
I205
tp18
sg5
g6
(I0
I-27
I63
I27
tp19
Rp20
sg9
Nsg10
I2
sba(iboxmodule
Box
p21
(dp22
g3
(I35
I188
I60
tp23
sg5
g6
(I0
I-61
I29
I61
tp24
Rp25
sg9
Nsg10
I3
sba(iboxmodule
Box
p26
(dp27
g3
(I151
I158
I218
tp28
sg5
g6
(I0
I-37
I48
I37
tp29
Rp30
sg9
Nsg10
I4
sba(iboxmodule
Box
p31
(dp32
g3
(I155
I160
I97
tp33
sg5
g6
(I0
I-42
I53
I42
tp34
Rp35
sg9
Nsg10
I5
sba(iboxmodule
Box
p36
(dp37
g3
(I75
I148
I204
tp38
sg5
g6
(I0
I-28
I35
I28
tp39
Rp40
sg9
Nsg10
I6
sba(iboxmodule
Box
p41
(dp42
g3
(I214
I158
I127
tp43
sg5
g6
(I0
I-28
I24
I28
tp44
Rp45
sg9
Nsg10
I7
sba(iboxmodule
Box
p46
(dp47
g3
(I225
I46
I44
tp48
sg5
g6
(I0
I-49
I37
I49
tp49
Rp50
sg9
Nsg10
I8
sba(iboxmodule
Box
p51
(dp52
g3
(I3
I236
I124
tp53
sg5
g6
(I0
I-58
I19
I58
tp54
Rp55
sg9
Nsg10
I9
sba(iboxmodule
Box
p56
(dp57
g3
(I206
I78
I13
tp58
sg5
g6
(I0
I-35
I28
I35
tp59
Rp60
sg9
Nsg10
I10
sba(iboxmodule
Box
p61
(dp62
g3
(I4
I15
I125
tp63
sg5
g6
(I0
I-25
I54
I25
tp64
Rp65
sg9
Nsg10
I11
sba(iboxmodule
Box
p66
(dp67
g3
(I253
I44
I103
tp68
sg5
g6
(I0
I-30
I20
I30
tp69
Rp70
sg9
Nsg10
I12
sba(iboxmodule
Box
p71
(dp72
g3
(I207
I15
I199
tp73
sg5
g6
(I0
I-41
I54
I41
tp74
Rp75
sg9
Nsg10
I13
sba(iboxmodule
Box
p76
(dp77
g3
(I39
I155
I202
tp78
sg5
g6
(I0
I-37
I18
I37
tp79
Rp80
sg9
Nsg10
I14
sba(iboxmodule
Box
p81
(dp82
g3
(I96
I37
I78
tp83
sg5
g6
(I0
I-27
I21
I27
tp84
Rp85
sg9
Nsg10
I15
sba(iboxmodule
Box
p86
(dp87
g3
(I112
I194
I159
tp88
sg5
g6
(I0
I-25
I43
I25
tp89
Rp90
sg9
Nsg10
I16
sba(iboxmodule
Box
p91
(dp92
g3
(I180
I122
I217
tp93
sg5
g6
(I0
I-41
I20
I41
tp94
Rp95
sg9
Nsg10
I17
sba(iboxmodule
Box
p96
(dp97
g3
(I46
I192
I70
tp98
sg5
g6
(I0
I-61
I33
I61
tp99
Rp100
sg9
Nsg10
I18
sba(iboxmodule
Box
p101
(dp102
g3
(I230
I189
I87
tp103
sg5
g6
(I0
I-52
I25
I52
tp104
Rp105
sg9
Nsg10
I19
sba(iboxmodule
Box
p106
(dp107
g3
(I228
I30
I195
tp108
sg5
g6
(I0
I-30
I64
I30
tp109
Rp110
sg9
Nsg10
I20
sba(iboxmodule
Box
p111
(dp112
g3
(I241
I149
I172
tp113
sg5
g6
(I0
I-48
I30
I48
tp114
Rp115
sg9
Nsg10
I21
sba(iboxmodule
Box
p116
(dp117
g3
(I164
I235
I218
tp118
sg5
g6
(I0
I-30
I51
I30
tp119
Rp120
sg9
Nsg10
I22
sba(iboxmodule
Box
p121
(dp122
g3
(I128
I77
I184
tp123
sg5
g6
(I0
I-52
I58
I52
tp124
Rp125
sg9
Nsg10
I23
sba(iboxmodule
Box
p126
(dp127
g3
(I245
I4
I214
tp128
sg5
g6
(I0
I-18
I26
I18
tp129
Rp130
sg9
Nsg10
I24
sba(iboxmodule
Box
p131
(dp132
g3
(I224
I248
I229
tp133
sg5
g6
(I0
I-39
I36
I39
tp134
Rp135
sg9
Nsg10
I25
sba(iboxmodule
Box
p136
(dp137
g3
(I228
I16
I252
tp138
sg5
g6
(I0
I-48
I17
I48
tp139
Rp140
sg9
Nsg10
I26
sba(iboxmodule
Box
p141
(dp142
g3
(I98
I218
I145
tp143
sg5
g6
(I0
I-36
I34
I36
tp144
Rp145
sg9
Nsg10
I27
sba(iboxmodule
Box
p146
(dp147
g3
(I225
I168
I55
tp148
sg5
g6
(I0
I-36
I32
I36
tp149
Rp150
sg9
Nsg10
I28
sba(iboxmodule
Box
p151
(dp152
g3
(I251
I166
I66
tp153
sg5
g6
(I0
I-16
I50
I16
tp154
Rp155
sg9
Nsg10
I29
sba(iboxmodule
Box
p156
(dp157
g3
(I56
I158
I39
tp158
sg5
g6
(I0
I-22
I29
I22
tp159
Rp160
sg9
Nsg10
I30
sba(iboxmodule
Box
p161
(dp162
g3
(I212
I89
I214
tp163
sg5
g6
(I0
I-58
I23
I58
tp164
Rp165
sg9
Nsg10
I31
sba(iboxmodule
Box
p166
(dp167
g3
(I183
I175
I13
tp168
sg5
g6
(I0
I-43
I28
I43
tp169
Rp170
sg9
Nsg10
I32
sba(iboxmodule
Box
p171
(dp172
g3
(I234
I214
I196
tp173
sg5
g6
(I0
I-55
I58
I55
tp174
Rp175
sg9
Nsg10
I33
sba(iboxmodule
Box
p176
(dp177
g3
(I60
I34
I162
tp178
sg5
g6
(I0
I-64
I43
I64
tp179
Rp180
sg9
Nsg10
I34
sba(iboxmodule
Box
p181
(dp182
g3
(I98
I169
I188
tp183
sg5
g6
(I0
I-26
I27
I26
tp184
Rp185
sg9
Nsg10
I35
sba(iboxmodule
Box
p186
(dp187
g3
(I188
I167
I224
tp188
sg5
g6
(I0
I-27
I26
I27
tp189
Rp190
sg9
Nsg10
I36
sba(iboxmodule
Box
p191
(dp192
g3
(I38
I21
I210
tp193
sg5
g6
(I0
I-52
I57
I52
tp194
Rp195
sg9
Nsg10
I37
sba(iboxmodule
Box
p196
(dp197
g3
(I33
I172
I46
tp198
sg5
g6
(I0
I-56
I23
I56
tp199
Rp200
sg9
Nsg10
I38
sba(iboxmodule
Box
p201
(dp202
g3
(I214
I121
I254
tp203
sg5
g6
(I0
I-49
I47
I49
tp204
Rp205
sg9
Nsg10
I39
sba(iboxmodule
Box
p206
(dp207
g3
(I34
I111
I128
tp208
sg5
g6
(I0
I-29
I27
I29
tp209
Rp210
sg9
Nsg10
I40
sba(iboxmodule
Box
p211
(dp212
g3
(I255
I214
I136
tp213
sg5
g6
(I0
I-28
I31
I28
tp214
Rp215
sg9
Nsg10
I41
sba(iboxmodule
Box
p216
(dp217
g3
(I215
I81
I20
tp218
sg5
g6
(I0
I-48
I61
I48
tp219
Rp220
sg9
Nsg10
I42
sba(iboxmodule
Box
p221
(dp222
g3
(I14
I5
I60
tp223
sg5
g6
(I0
I-48
I23
I48
tp224
Rp225
sg9
Nsg10
I43
sba(iboxmodule
Box
p226
(dp227
g3
(I190
I207
I131
tp228
sg5
g6
(I0
I-30
I38
I30
tp229
Rp230
sg9
Nsg10
I44
sba(iboxmodule
Box
p231
(dp232
g3
(I166
I253
I110
tp233
sg5
g6
(I0
I-44
I27
I44
tp234
Rp235
sg9
Nsg10
I45
sba(iboxmodule
Box
p236
(dp237
g3
(I50
I122
I128
tp238
sg5
g6
(I0
I-51
I41
I51
tp239
Rp240
sg9
Nsg10
I46
sba(iboxmodule
Box
p241
(dp242
g3
(I44
I71
I9
tp243
sg5
g6
(I0
I-61
I46
I61
tp244
Rp245
sg9
Nsg10
I47
sba(iboxmodule
Box
p246
(dp247
g3
(I132
I202
I218
tp248
sg5
g6
(I0
I-31
I51
I31
tp249
Rp250
sg9
Nsg10
I48
sba(iboxmodule
Box
p251
(dp252
g3
(I215
I165
I207
tp253
sg5
g6
(I0
I-25
I33
I25
tp254
Rp255
sg9
Nsg10
I49
sba(iboxmodule
Box
p256
(dp257
g3
(I69
I187
I68
tp258
sg5
g6
(I0
I-53
I46
I53
tp259
Rp260
sg9
Nsg10
I50
sba(iboxmodule
Box
p261
(dp262
g3
(I14
I76
I106
tp263
sg5
g6
(I0
I-26
I34
I26
tp264
Rp265
sg9
Nsg10
I51
sba(iboxmodule
Box
p266
(dp267
g3
(I180
I70
I75
tp268
sg5
g6
(I0
I-29
I18
I29
tp269
Rp270
sg9
Nsg10
I52
sba(iboxmodule
Box
p271
(dp272
g3
(I196
I139
I35
tp273
sg5
g6
(I0
I-32
I48
I32
tp274
Rp275
sg9
Nsg10
I53
sba(iboxmodule
Box
p276
(dp277
g3
(I228
I239
I6
tp278
sg5
g6
(I0
I-19
I32
I19
tp279
Rp280
sg9
Nsg10
I54
sba(iboxmodule
Box
p281
(dp282
g3
(I52
I18
I15
tp283
sg5
g6
(I0
I-25
I30
I25
tp284
Rp285
sg9
Nsg10
I55
sba(iboxmodule
Box
p286
(dp287
g3
(I204
I32
I23
tp288
sg5
g6
(I0
I-29
I25
I29
tp289
Rp290
sg9
Nsg10
I56
sba(iboxmodule
Box
p291
(dp292
g3
(I243
I195
I250
tp293
sg5
g6
(I0
I-23
I18
I23
tp294
Rp295
sg9
Nsg10
I57
sba(iboxmodule
Box
p296
(dp297
g3
(I38
I250
I66
tp298
sg5
g6
(I0
I-61
I42
I61
tp299
Rp300
sg9
Nsg10
I58
sba(iboxmodule
Box
p301
(dp302
g3
(I166
I146
I13
tp303
sg5
g6
(I0
I-38
I17
I38
tp304
Rp305
sg9
Nsg10
I59
sba(iboxmodule
Box
p306
(dp307
g3
(I18
I40
I34
tp308
sg5
g6
(I0
I-24
I64
I24
tp309
Rp310
sg9
Nsg10
I60
sba(iboxmodule
Box
p311
(dp312
g3
(I46
I103
I231
tp313
sg5
g6
(I0
I-51
I36
I51
tp314
Rp315
sg9
Nsg10
I61
sba(iboxmodule
Box
p316
(dp317
g3
(I12
I46
I79
tp318
sg5
g6
(I0
I-55
I21
I55
tp319
Rp320
sg9
Nsg10
I62
sba(iboxmodule
Box
p321
(dp322
g3
(I232
I84
I86
tp323
sg5
g6
(I0
I-52
I46
I52
tp324
Rp325
sg9
Nsg10
I63
sba(iboxmodule
Box
p326
(dp327
g3
(I62
I15
I217
tp328
sg5
g6
(I0
I-36
I38
I36
tp329
Rp330
sg9
Nsg10
I64
sba(iboxmodule
Box
p331
(dp332
g3
(I88
I23
I8
tp333
sg5
g6
(I0
I-36
I26
I36
tp334
Rp335
sg9
Nsg10
I65
sba(iboxmodule
Box
p336
(dp337
g3
(I17
I106
I139
tp338
sg5
g6
(I0
I-30
I38
I30
tp339
Rp340
sg9
Nsg10
I66
sba(iboxmodule
Box
p341
(dp342
g3
(I219
I163
I119
tp343
sg5
g6
(I0
I-20
I59
I20
tp344
Rp345
sg9
Nsg10
I67
sba(iboxmodule
Box
p346
(dp347
g3
(I1
I0
I86
tp348
sg5
g6
(I0
I-26
I19
I26
tp349
Rp350
sg9
Nsg10
I68
sba(iboxmodule
Box
p351
(dp352
g3
(I190
I60
I47
tp353
sg5
g6
(I0
I-39
I27
I39
tp354
Rp355
sg9
Nsg10
I69
sba(iboxmodule
Box
p356
(dp357
g3
(I55
I154
I11
tp358
sg5
g6
(I0
I-37
I36
I37
tp359
Rp360
sg9
Nsg10
I70
sba(iboxmodule
Box
p361
(dp362
g3
(I104
I255
I120
tp363
sg5
g6
(I0
I-23
I37
I23
tp364
Rp365
sg9
Nsg10
I71
sba(iboxmodule
Box
p366
(dp367
g3
(I31
I160
I57
tp368
sg5
g6
(I0
I-61
I47
I61
tp369
Rp370
sg9
Nsg10
I72
sba(iboxmodule
Box
p371
(dp372
g3
(I120
I226
I167
tp373
sg5
g6
(I0
I-25
I24
I25
tp374
Rp375
sg9
Nsg10
I73
sba(iboxmodule
Box
p376
(dp377
g3
(I212
I161
I221
tp378
sg5
g6
(I0
I-30
I55
I30
tp379
Rp380
sg9
Nsg10
I74
sba(iboxmodule
Box
p381
(dp382
g3
(I156
I218
I77
tp383
sg5
g6
(I0
I-34
I27
I34
tp384
Rp385
sg9
Nsg10
I75
sba(iboxmodule
Box
p386
(dp387
g3
(I92
I103
I139
tp388
sg5
g6
(I0
I-32
I50
I32
tp389
Rp390
sg9
Nsg10
I76
sba(iboxmodule
Box
p391
(dp392
g3
(I175
I93
I118
tp393
sg5
g6
(I0
I-62
I32
I62
tp394
Rp395
sg9
Nsg10
I77
sba(iboxmodule
Box
p396
(dp397
g3
(I184
I69
I225
tp398
sg5
g6
(I0
I-57
I17
I57
tp399
Rp400
sg9
Nsg10
I78
sba(iboxmodule
Box
p401
(dp402
g3
(I63
I222
I233
tp403
sg5
g6
(I0
I-64
I58
I64
tp404
Rp405
sg9
Nsg10
I79
sba(iboxmodule
Box
p406
(dp407
g3
(I241
I251
I150
tp408
sg5
g6
(I0
I-18
I43
I18
tp409
Rp410
sg9
Nsg10
I80
sba(iboxmodule
Box
p411
(dp412
g3
(I51
I126
I97
tp413
sg5
g6
(I0
I-18
I50
I18
tp414
Rp415
sg9
Nsg10
I81
sba(iboxmodule
Box
p416
(dp417
g3
(I167
I108
I223
tp418
sg5
g6
(I0
I-51
I44
I51
tp419
Rp420
sg9
Nsg10
I82
sba(iboxmodule
Box
p421
(dp422
g3
(I14
I96
I135
tp423
sg5
g6
(I0
I-27
I57
I27
tp424
Rp425
sg9
Nsg10
I83
sba(iboxmodule
Box
p426
(dp427
g3
(I10
I35
I85
tp428
sg5
g6
(I0
I-46
I42
I46
tp429
Rp430
sg9
Nsg10
I84
sba(iboxmodule
Box
p431
(dp432
g3
(I162
I241
I26
tp433
sg5
g6
(I0
I-63
I31
I63
tp434
Rp435
sg9
Nsg10
I85
sba(iboxmodule
Box
p436
(dp437
g3
(I210
I58
I102
tp438
sg5
g6
(I0
I-42
I41
I42
tp439
Rp440
sg9
Nsg10
I86
sba(iboxmodule
Box
p441
(dp442
g3
(I243
I35
I100
tp443
sg5
g6
(I0
I-25
I18
I25
tp444
Rp445
sg9
Nsg10
I87
sba(iboxmodule
Box
p446
(dp447
g3
(I58
I45
I223
tp448
sg5
g6
(I0
I-48
I36
I48
tp449
Rp450
sg9
Nsg10
I88
sba(iboxmodule
Box
p451
(dp452
g3
(I111
I227
I82
tp453
sg5
g6
(I0
I-35
I41
I35
tp454
Rp455
sg9
Nsg10
I89
sba(iboxmodule
Box
p456
(dp457
g3
(I83
I95
I233
tp458
sg5
g6
(I0
I-56
I39
I56
tp459
Rp460
sg9
Nsg10
I90
sba(iboxmodule
Box
p461
(dp462
g3
(I79
I134
I173
tp463
sg5
g6
(I0
I-44
I37
I44
tp464
Rp465
sg9
Nsg10
I91
sba(iboxmodule
Box
p466
(dp467
g3
(I82
I4
I40
tp468
sg5
g6
(I0
I-20
I22
I20
tp469
Rp470
sg9
Nsg10
I92
sba(iboxmodule
Box
p471
(dp472
g3
(I28
I230
I179
tp473
sg5
g6
(I0
I-56
I16
I56
tp474
Rp475
sg9
Nsg10
I93
sba(iboxmodule
Box
p476
(dp477
g3
(I104
I153
I159
tp478
sg5
g6
(I0
I-20
I20
I20
tp479
Rp480
sg9
Nsg10
I94
sba(iboxmodule
Box
p481
(dp482
g3
(I183
I187
I24
tp483
sg5
g6
(I0
I-57
I19
I57
tp484
Rp485
sg9
Nsg10
I95
sba(iboxmodule
Box
p486
(dp487
g3
(I136
I243
I204
tp488
sg5
g6
(I0
I-35
I47
I35
tp489
Rp490
sg9
Nsg10
I96
sba(iboxmodule
Box
p491
(dp492
g3
(I14
I51
I149
tp493
sg5
g6
(I0
I-48
I25
I48
tp494
Rp495
sg9
Nsg10
I97
sba(iboxmodule
Box
p496
(dp497
g3
(I73
I55
I74
tp498
sg5
g6
(I0
I-49
I62
I49
tp499
Rp500
sg9
Nsg10
I98
sba(iboxmodule
Box
p501
(dp502
g3
(I148
I239
I15
tp503
sg5
g6
(I0
I-62
I25
I62
tp504
Rp505
sg9
Nsg10
I99
sba(iboxmodule
Box
p506
(dp507
g3
(I81
I233
I176
tp508
sg5
g6
(I0
I-40
I36
I40
tp509
Rp510
sg9
Nsg10
I100
sba(iboxmodule
Box
p511
(dp512
g3
(I85
I153
I73
tp513
sg5
g6
(I0
I-48
I42
I48
tp514
Rp515
sg9
Nsg10
I101
sba(iboxmodule
Box
p516
(dp517
g3
(I225
I100
I208
tp518
sg5
g6
(I0
I-27
I39
I27
tp519
Rp520
sg9
Nsg10
I102
sba(iboxmodule
Box
p521
(dp522
g3
(I156
I71
I101
tp523
sg5
g6
(I0
I-28
I27
I28
tp524
Rp525
sg9
Nsg10
I103
sba(iboxmodule
Box
p526
(dp527
g3
(I160
I167
I141
tp528
sg5
g6
(I0
I-47
I49
I47
tp529
Rp530
sg9
Nsg10
I104
sba(iboxmodule
Box
p531
(dp532
g3
(I20
I36
I200
tp533
sg5
g6
(I0
I-37
I51
I37
tp534
Rp535
sg9
Nsg10
I105
sba(iboxmodule
Box
p536
(dp537
g3
(I110
I161
I199
tp538
sg5
g6
(I0
I-62
I40
I62
tp539
Rp540
sg9
Nsg10
I106
sba(iboxmodule
Box
p541
(dp542
g3
(I160
I191
I158
tp543
sg5
g6
(I0
I-16
I62
I16
tp544
Rp545
sg9
Nsg10
I107
sba(iboxmodule
Box
p546
(dp547
g3
(I78
I122
I78
tp548
sg5
g6
(I0
I-40
I42
I40
tp549
Rp550
sg9
Nsg10
I108
sba(iboxmodule
Box
p551
(dp552
g3
(I243
I116
I32
tp553
sg5
g6
(I0
I-60
I40
I60
tp554
Rp555
sg9
Nsg10
I109
sba(iboxmodule
Box
p556
(dp557
g3
(I51
I175
I46
tp558
sg5
g6
(I0
I-36
I36
I36
tp559
Rp560
sg9
Nsg10
I110
sba(iboxmodule
Box
p561
(dp562
g3
(I7
I225
I41
tp563
sg5
g6
(I0
I-55
I42
I55
tp564
Rp565
sg9
Nsg10
I111
sba(iboxmodule
Box
p566
(dp567
g3
(I63
I11
I163
tp568
sg5
g6
(I0
I-30
I43
I30
tp569
Rp570
sg9
Nsg10
I112
sba(iboxmodule
Box
p571
(dp572
g3
(I172
I46
I193
tp573
sg5
g6
(I0
I-17
I28
I17
tp574
Rp575
sg9
Nsg10
I113
sba(iboxmodule
Box
p576
(dp577
g3
(I64
I35
I186
tp578
sg5
g6
(I0
I-21
I35
I21
tp579
Rp580
sg9
Nsg10
I114
sba(iboxmodule
Box
p581
(dp582
g3
(I173
I144
I121
tp583
sg5
g6
(I0
I-56
I46
I56
tp584
Rp585
sg9
Nsg10
I115
sba(iboxmodule
Box
p586
(dp587
g3
(I80
I159
I144
tp588
sg5
g6
(I0
I-63
I32
I63
tp589
Rp590
sg9
Nsg10
I116
sba(iboxmodule
Box
p591
(dp592
g3
(I124
I100
I58
tp593
sg5
g6
(I0
I-52
I56
I52
tp594
Rp595
sg9
Nsg10
I117
sba(iboxmodule
Box
p596
(dp597
g3
(I227
I142
I164
tp598
sg5
g6
(I0
I-33
I17
I33
tp599
Rp600
sg9
Nsg10
I118
sba(iboxmodule
Box
p601
(dp602
g3
(I55
I167
I229
tp603
sg5
g6
(I0
I-24
I43
I24
tp604
Rp605
sg9
Nsg10
I119
sba(iboxmodule
Box
p606
(dp607
g3
(I210
I182
I68
tp608
sg5
g6
(I0
I-36
I55
I36
tp609
Rp610
sg9
Nsg10
I120
sba(iboxmodule
Box
p611
(dp612
g3
(I69
I157
I78
tp613
sg5
g6
(I0
I-44
I51
I44
tp614
Rp615
sg9
Nsg10
I121
sba(iboxmodule
Box
p616
(dp617
g3
(I61
I135
I27
tp618
sg5
g6
(I0
I-28
I63
I28
tp619
Rp620
sg9
Nsg10
I122
sba(iboxmodule
Box
p621
(dp622
g3
(I95
I124
I129
tp623
sg5
g6
(I0
I-57
I44
I57
tp624
Rp625
sg9
Nsg10
I123
sba(iboxmodule
Box
p626
(dp627
g3
(I253
I252
I77
tp628
sg5
g6
(I0
I-62
I63
I62
tp629
Rp630
sg9
Nsg10
I124
sba(iboxmodule
Box
p631
(dp632
g3
(I182
I41
I52
tp633
sg5
g6
(I0
I-55
I54
I55
tp634
Rp635
sg9
Nsg10
I125
sba(iboxmodule
Box
p636
(dp637
g3
(I83
I51
I154
tp638
sg5
g6
(I0
I-62
I57
I62
tp639
Rp640
sg9
Nsg10
I126
sba(iboxmodule
Box
p641
(dp642
g3
(I27
I64
I139
tp643
sg5
g6
(I0
I-38
I17
I38
tp644
Rp645
sg9
Nsg10
I127
sba(iboxmodule
Box
p646
(dp647
g3
(I241
I130
I37
tp648
sg5
g6
(I0
I-23
I50
I23
tp649
Rp650
sg9
Nsg10
I128
sba(iboxmodule
Box
p651
(dp652
g3
(I245
I93
I57
tp653
sg5
g6
(I0
I-62
I38
I62
tp654
Rp655
sg9
Nsg10
I129
sba(iboxmodule
Box
p656
(dp657
g3
(I134
I177
I98
tp658
sg5
g6
(I0
I-58
I35
I58
tp659
Rp660
sg9
Nsg10
I130
sba(iboxmodule
Box
p661
(dp662
g3
(I145
I122
I78
tp663
sg5
g6
(I0
I-24
I58
I24
tp664
Rp665
sg9
Nsg10
I131
sba(iboxmodule
Box
p666
(dp667
g3
(I0
I132
I156
tp668
sg5
g6
(I0
I-50
I57
I50
tp669
Rp670
sg9
Nsg10
I132
sba(iboxmodule
Box
p671
(dp672
g3
(I142
I70
I162
tp673
sg5
g6
(I0
I-41
I43
I41
tp674
Rp675
sg9
Nsg10
I133
sba(iboxmodule
Box
p676
(dp677
g3
(I249
I212
I26
tp678
sg5
g6
(I0
I-49
I34
I49
tp679
Rp680
sg9
Nsg10
I134
sba(iboxmodule
Box
p681
(dp682
g3
(I234
I72
I224
tp683
sg5
g6
(I0
I-32
I29
I32
tp684
Rp685
sg9
Nsg10
I135
sba(iboxmodule
Box
p686
(dp687
g3
(I22
I114
I122
tp688
sg5
g6
(I0
I-21
I52
I21
tp689
Rp690
sg9
Nsg10
I136
sba(iboxmodule
Box
p691
(dp692
g3
(I186
I59
I220
tp693
sg5
g6
(I0
I-64
I21
I64
tp694
Rp695
sg9
Nsg10
I137
sba(iboxmodule
Box
p696
(dp697
g3
(I200
I55
I148
tp698
sg5
g6
(I0
I-16
I60
I16
tp699
Rp700
sg9
Nsg10
I138
sba(iboxmodule
Box
p701
(dp702
g3
(I250
I192
I50
tp703
sg5
g6
(I0
I-30
I45
I30
tp704
Rp705
sg9
Nsg10
I139
sba(iboxmodule
Box
p706
(dp707
g3
(I215
I73
I215
tp708
sg5
g6
(I0
I-20
I23
I20
tp709
Rp710
sg9
Nsg10
I140
sba(iboxmodule
Box
p711
(dp712
g3
(I205
I150
I98
tp713
sg5
g6
(I0
I-32
I21
I32
tp714
Rp715
sg9
Nsg10
I141
sba(iboxmodule
Box
p716
(dp717
g3
(I76
I202
I222
tp718
sg5
g6
(I0
I-27
I31
I27
tp719
Rp720
sg9
Nsg10
I142
sba(iboxmodule
Box
p721
(dp722
g3
(I253
I149
I254
tp723
sg5
g6
(I0
I-22
I59
I22
tp724
Rp725
sg9
Nsg10
I143
sba(iboxmodule
Box
p726
(dp727
g3
(I5
I110
I42
tp728
sg5
g6
(I0
I-55
I59
I55
tp729
Rp730
sg9
Nsg10
I144
sba(iboxmodule
Box
p731
(dp732
g3
(I166
I183
I67
tp733
sg5
g6
(I0
I-32
I23
I32
tp734
Rp735
sg9
Nsg10
I145
sba(iboxmodule
Box
p736
(dp737
g3
(I86
I115
I216
tp738
sg5
g6
(I0
I-44
I50
I44
tp739
Rp740
sg9
Nsg10
I146
sba(iboxmodule
Box
p741
(dp742
g3
(I214
I249
I216
tp743
sg5
g6
(I0
I-44
I36
I44
tp744
Rp745
sg9
Nsg10
I147
sba(iboxmodule
Box
p746
(dp747
g3
(I155
I67
I37
tp748
sg5
g6
(I0
I-44
I43
I44
tp749
Rp750
sg9
Nsg10
I148
sba(iboxmodule
Box
p751
(dp752
g3
(I227
I166
I165
tp753
sg5
g6
(I0
I-48
I46
I48
tp754
Rp755
sg9
Nsg10
I149
sba(iboxmodule
Box
p756
(dp757
g3
(I41
I15
I91
tp758
sg5
g6
(I0
I-22
I24
I22
tp759
Rp760
sg9
Nsg10
I150
sba(iboxmodule
Box
p761
(dp762
g3
(I97
I242
I135
tp763
sg5
g6
(I0
I-30
I33
I30
tp764
Rp765
sg9
Nsg10
I151
sba(iboxmodule
Box
p766
(dp767
g3
(I111
I108
I150
tp768
sg5
g6
(I0
I-39
I19
I39
tp769
Rp770
sg9
Nsg10
I152
sba(iboxmodule
Box
p771
(dp772
g3
(I182
I103
I197
tp773
sg5
g6
(I0
I-17
I59
I17
tp774
Rp775
sg9
Nsg10
I153
sba(iboxmodule
Box
p776
(dp777
g3
(I31
I160
I37
tp778
sg5
g6
(I0
I-20
I42
I20
tp779
Rp780
sg9
Nsg10
I154
sba(iboxmodule
Box
p781
(dp782
g3
(I235
I195
I220
tp783
sg5
g6
(I0
I-34
I41
I34
tp784
Rp785
sg9
Nsg10
I155
sba(iboxmodule
Box
p786
(dp787
g3
(I63
I211
I169
tp788
sg5
g6
(I0
I-36
I56
I36
tp789
Rp790
sg9
Nsg10
I156
sba(iboxmodule
Box
p791
(dp792
g3
(I131
I176
I160
tp793
sg5
g6
(I0
I-49
I26
I49
tp794
Rp795
sg9
Nsg10
I157
sba(iboxmodule
Box
p796
(dp797
g3
(I29
I251
I121
tp798
sg5
g6
(I0
I-29
I17
I29
tp799
Rp800
sg9
Nsg10
I158
sba(iboxmodule
Box
p801
(dp802
g3
(I146
I13
I62
tp803
sg5
g6
(I0
I-28
I29
I28
tp804
Rp805
sg9
Nsg10
I159
sba(iboxmodule
Box
p806
(dp807
g3
(I152
I119
I73
tp808
sg5
g6
(I0
I-16
I37
I16
tp809
Rp810
sg9
Nsg10
I160
sba(iboxmodule
Box
p811
(dp812
g3
(I217
I140
I61
tp813
sg5
g6
(I0
I-56
I46
I56
tp814
Rp815
sg9
Nsg10
I161
sba(iboxmodule
Box
p816
(dp817
g3
(I171
I5
I9
tp818
sg5
g6
(I0
I-44
I37
I44
tp819
Rp820
sg9
Nsg10
I162
sba(iboxmodule
Box
p821
(dp822
g3
(I29
I37
I231
tp823
sg5
g6
(I0
I-54
I40
I54
tp824
Rp825
sg9
Nsg10
I163
sba(iboxmodule
Box
p826
(dp827
g3
(I199
I193
I152
tp828
sg5
g6
(I0
I-45
I30
I45
tp829
Rp830
sg9
Nsg10
I164
sba(iboxmodule
Box
p831
(dp832
g3
(I189
I179
I183
tp833
sg5
g6
(I0
I-19
I36
I19
tp834
Rp835
sg9
Nsg10
I165
sba(iboxmodule
Box
p836
(dp837
g3
(I15
I29
I237
tp838
sg5
g6
(I0
I-64
I46
I64
tp839
Rp840
sg9
Nsg10
I166
sba(iboxmodule
Box
p841
(dp842
g3
(I23
I231
I125
tp843
sg5
g6
(I0
I-60
I29
I60
tp844
Rp845
sg9
Nsg10
I167
sba(iboxmodule
Box
p846
(dp847
g3
(I210
I206
I237
tp848
sg5
g6
(I0
I-48
I17
I48
tp849
Rp850
sg9
Nsg10
I168
sba(iboxmodule
Box
p851
(dp852
g3
(I153
I135
I139
tp853
sg5
g6
(I0
I-31
I63
I31
tp854
Rp855
sg9
Nsg10
I169
sba(iboxmodule
Box
p856
(dp857
g3
(I109
I100
I140
tp858
sg5
g6
(I0
I-55
I26
I55
tp859
Rp860
sg9
Nsg10
I170
sba(iboxmodule
Box
p861
(dp862
g3
(I131
I110
I157
tp863
sg5
g6
(I0
I-56
I22
I56
tp864
Rp865
sg9
Nsg10
I171
sba(iboxmodule
Box
p866
(dp867
g3
(I131
I11
I116
tp868
sg5
g6
(I0
I-56
I24
I56
tp869
Rp870
sg9
Nsg10
I172
sba(iboxmodule
Box
p871
(dp872
g3
(I91
I11
I255
tp873
sg5
g6
(I0
I-40
I63
I40
tp874
Rp875
sg9
Nsg10
I173
sba(iboxmodule
Box
p876
(dp877
g3
(I15
I158
I53
tp878
sg5
g6
(I0
I-32
I59
I32
tp879
Rp880
sg9
Nsg10
I174
sba(iboxmodule
Box
p881
(dp882
g3
(I39
I169
I100
tp883
sg5
g6
(I0
I-21
I53
I21
tp884
Rp885
sg9
Nsg10
I175
sba(iboxmodule
Box
p886
(dp887
g3
(I218
I110
I95
tp888
sg5
g6
(I0
I-49
I20
I49
tp889
Rp890
sg9
Nsg10
I176
sba(iboxmodule
Box
p891
(dp892
g3
(I239
I217
I215
tp893
sg5
g6
(I0
I-29
I54
I29
tp894
Rp895
sg9
Nsg10
I177
sba(iboxmodule
Box
p896
(dp897
g3
(I192
I45
I9
tp898
sg5
g6
(I0
I-35
I61
I35
tp899
Rp900
sg9
Nsg10
I178
sba(iboxmodule
Box
p901
(dp902
g3
(I199
I125
I188
tp903
sg5
g6
(I0
I-45
I29
I45
tp904
Rp905
sg9
Nsg10
I179
sba(iboxmodule
Box
p906
(dp907
g3
(I114
I117
I54
tp908
sg5
g6
(I0
I-30
I59
I30
tp909
Rp910
sg9
Nsg10
I180
sba(iboxmodule
Box
p911
(dp912
g3
(I62
I9
I77
tp913
sg5
g6
(I0
I-21
I29
I21
tp914
Rp915
sg9
Nsg10
I181
sba(iboxmodule
Box
p916
(dp917
g3
(I193
I219
I7
tp918
sg5
g6
(I0
I-55
I60
I55
tp919
Rp920
sg9
Nsg10
I182
sba(iboxmodule
Box
p921
(dp922
g3
(I217
I25
I231
tp923
sg5
g6
(I0
I-25
I19
I25
tp924
Rp925
sg9
Nsg10
I183
sba(iboxmodule
Box
p926
(dp927
g3
(I181
I76
I218
tp928
sg5
g6
(I0
I-44
I60
I44
tp929
Rp930
sg9
Nsg10
I184
sba(iboxmodule
Box
p931
(dp932
g3
(I91
I80
I109
tp933
sg5
g6
(I0
I-51
I39
I51
tp934
Rp935
sg9
Nsg10
I185
sba(iboxmodule
Box
p936
(dp937
g3
(I216
I64
I126
tp938
sg5
g6
(I0
I-23
I34
I23
tp939
Rp940
sg9
Nsg10
I186
sba(iboxmodule
Box
p941
(dp942
g3
(I248
I225
I36
tp943
sg5
g6
(I0
I-54
I33
I54
tp944
Rp945
sg9
Nsg10
I187
sba(iboxmodule
Box
p946
(dp947
g3
(I229
I171
I113
tp948
sg5
g6
(I0
I-63
I19
I63
tp949
Rp950
sg9
Nsg10
I188
sba(iboxmodule
Box
p951
(dp952
g3
(I168
I13
I36
tp953
sg5
g6
(I0
I-37
I62
I37
tp954
Rp955
sg9
Nsg10
I189
sba(iboxmodule
Box
p956
(dp957
g3
(I85
I95
I191
tp958
sg5
g6
(I0
I-45
I44
I45
tp959
Rp960
sg9
Nsg10
I190
sba(iboxmodule
Box
p961
(dp962
g3
(I30
I22
I20
tp963
sg5
g6
(I0
I-52
I31
I52
tp964
Rp965
sg9
Nsg10
I191
sba(iboxmodule
Box
p966
(dp967
g3
(I110
I187
I191
tp968
sg5
g6
(I0
I-50
I40
I50
tp969
Rp970
sg9
Nsg10
I192
sba(iboxmodule
Box
p971
(dp972
g3
(I43
I78
I39
tp973
sg5
g6
(I0
I-55
I20
I55
tp974
Rp975
sg9
Nsg10
I193
sba(iboxmodule
Box
p976
(dp977
g3
(I222
I233
I130
tp978
sg5
g6
(I0
I-37
I20
I37
tp979
Rp980
sg9
Nsg10
I194
sba(iboxmodule
Box
p981
(dp982
g3
(I161
I138
I190
tp983
sg5
g6
(I0
I-17
I46
I17
tp984
Rp985
sg9
Nsg10
I195
sba(iboxmodule
Box
p986
(dp987
g3
(I86
I191
I140
tp988
sg5
g6
(I0
I-32
I49
I32
tp989
Rp990
sg9
Nsg10
I196
sba(iboxmodule
Box
p991
(dp992
g3
(I24
I200
I24
tp993
sg5
g6
(I0
I-39
I53
I39
tp994
Rp995
sg9
Nsg10
I197
sba(iboxmodule
Box
p996
(dp997
g3
(I133
I171
I133
tp998
sg5
g6
(I0
I-41
I43
I41
tp999
Rp1000
sg9
Nsg10
I198
sba(iboxmodule
Box
p1001
(dp1002
g3
(I218
I6
I175
tp1003
sg5
g6
(I0
I-49
I28
I49
tp1004
Rp1005
sg9
Nsg10
I199
sba.