(lp0
(dp1
S'physical_machines_suspended'
p2
I69
sS'physical_machines_idle'
p3
I0
sS'placement'
p4
(i__main__
PMManager
p5
(dp6
S'items'
p7
(lp8
(i__main__
PhysicalMachine
p9
(dp10
S'mem'
p11
I91
sS'id'
p12
S'0'
p13
sS'suspended'
p14
I00
sS'net'
p15
I90
sS'disk'
p16
I88
sS'vms'
p17
(lp18
ccopy_reg
_reconstructor
p19
(c__main__
VirtualMachine
p20
c__builtin__
dict
p21
(dp22
tp23
Rp24
(dp25
g12
S'1'
p26
sS'value'
p27
(dp28
S'weight'
p29
I1
sg11
I16
sS'n'
p30
I1
sS'placed'
p31
I1
sg15
I16
sg16
I14
sS'cpu'
p32
I15
ssbag19
(g20
g21
(dp33
tp34
Rp35
(dp36
g12
S'6'
p37
sg27
(dp38
g29
I1
sg11
I15
sg30
I1
sg31
I1
sg15
I15
sg16
I15
sg32
I16
ssbag19
(g20
g21
(dp39
tp40
Rp41
(dp42
g12
S'8'
p43
sg27
(dp44
g29
I1
sg11
I15
sg30
I1
sg31
I1
sg15
I16
sg16
I16
sg32
I15
ssbag19
(g20
g21
(dp45
tp46
Rp47
(dp48
g12
S'9'
p49
sg27
(dp50
g29
I1
sg11
I14
sg30
I1
sg31
I1
sg15
I16
sg16
I15
sg32
I16
ssbag19
(g20
g21
(dp51
tp52
Rp53
(dp54
g12
S'11'
p55
sg27
(dp56
g29
I1
sg11
I15
sg30
I1
sg31
I1
sg15
I14
sg16
I13
sg32
I15
ssbag19
(g20
g21
(dp57
tp58
Rp59
(dp60
g12
S'15'
p61
sg27
(dp62
g29
I1
sg11
I16
sg30
I1
sg31
I1
sg15
I13
sg16
I15
sg32
I15
ssbasg32
I92
sba(i__main__
PhysicalMachine
p63
(dp64
g11
I90
sg12
S'1'
p65
sg14
I00
sg15
I91
sg16
I89
sg17
(lp66
g19
(g20
g21
(dp67
tp68
Rp69
(dp70
g12
S'3'
p71
sg27
(dp72
g29
I1
sg11
I14
sg30
I1
sg31
I1
sg15
I16
sg16
I15
sg32
I16
ssbag19
(g20
g21
(dp73
tp74
Rp75
(dp76
g12
S'4'
p77
sg27
(dp78
g29
I1
sg11
I15
sg30
I1
sg31
I1
sg15
I14
sg16
I13
sg32
I16
ssbag19
(g20
g21
(dp79
tp80
Rp81
(dp82
g12
S'10'
p83
sg27
(dp84
g29
I1
sg11
I15
sg30
I1
sg31
I1
sg15
I15
sg16
I16
sg32
I15
ssbag19
(g20
g21
(dp85
tp86
Rp87
(dp88
g12
S'12'
p89
sg27
(dp90
g29
I1
sg11
I16
sg30
I1
sg31
I1
sg15
I14
sg16
I16
sg32
I16
ssbag19
(g20
g21
(dp91
tp92
Rp93
(dp94
g12
S'13'
p95
sg27
(dp96
g29
I1
sg11
I16
sg30
I1
sg31
I1
sg15
I17
sg16
I14
sg32
I15
ssbag19
(g20
g21
(dp97
tp98
Rp99
(dp100
g12
S'14'
p101
sg27
(dp102
g29
I1
sg11
I14
sg30
I1
sg31
I1
sg15
I15
sg16
I15
sg32
I17
ssbasg32
I95
sba(i__main__
PhysicalMachine
p103
(dp104
g11
I62
sg12
S'2'
p105
sg14
I00
sg15
I61
sg16
I62
sg17
(lp106
g19
(g20
g21
(dp107
tp108
Rp109
(dp110
g12
S'0'
p111
sg27
(dp112
g29
I1
sg11
I16
sg30
I1
sg31
I1
sg15
I15
sg16
I15
sg32
I14
ssbag19
(g20
g21
(dp113
tp114
Rp115
(dp116
g12
S'2'
p117
sg27
(dp118
g29
I1
sg11
I15
sg30
I1
sg31
I1
sg15
I16
sg16
I15
sg32
I16
ssbag19
(g20
g21
(dp119
tp120
Rp121
(dp122
g12
S'5'
p123
sg27
(dp124
g29
I1
sg11
I16
sg30
I1
sg31
I1
sg15
I16
sg16
I16
sg32
I16
ssbag19
(g20
g21
(dp125
tp126
Rp127
(dp128
g12
S'7'
p129
sg27
(dp130
g29
I1
sg11
I15
sg30
I1
sg31
I1
sg15
I14
sg16
I16
sg32
I15
ssbasg32
I61
sba(i__main__
PhysicalMachine
p131
(dp132
g11
I0
sg12
S'3'
p133
sg14
I01
sg15
I0
sg16
I0
sg17
(lp134
sg32
I0
sba(i__main__
PhysicalMachine
p135
(dp136
g11
I0
sg12
S'4'
p137
sg14
I01
sg15
I0
sg16
I0
sg17
(lp138
sg32
I0
sba(i__main__
PhysicalMachine
p139
(dp140
g11
I0
sg12
S'5'
p141
sg14
I01
sg15
I0
sg16
I0
sg17
(lp142
sg32
I0
sba(i__main__
PhysicalMachine
p143
(dp144
g11
I0
sg12
S'6'
p145
sg14
I01
sg15
I0
sg16
I0
sg17
(lp146
sg32
I0
sba(i__main__
PhysicalMachine
p147
(dp148
g11
I0
sg12
S'7'
p149
sg14
I01
sg15
I0
sg16
I0
sg17
(lp150
sg32
I0
sba(i__main__
PhysicalMachine
p151
(dp152
g11
I0
sg12
S'8'
p153
sg14
I01
sg15
I0
sg16
I0
sg17
(lp154
sg32
I0
sba(i__main__
PhysicalMachine
p155
(dp156
g11
I0
sg12
S'9'
p157
sg14
I01
sg15
I0
sg16
I0
sg17
(lp158
sg32
I0
sba(i__main__
PhysicalMachine
p159
(dp160
g11
I0
sg12
S'10'
p161
sg14
I01
sg15
I0
sg16
I0
sg17
(lp162
sg32
I0
sba(i__main__
PhysicalMachine
p163
(dp164
g11
I0
sg12
S'11'
p165
sg14
I01
sg15
I0
sg16
I0
sg17
(lp166
sg32
I0
sba(i__main__
PhysicalMachine
p167
(dp168
g11
I0
sg12
S'12'
p169
sg14
I01
sg15
I0
sg16
I0
sg17
(lp170
sg32
I0
sba(i__main__
PhysicalMachine
p171
(dp172
g11
I0
sg12
S'13'
p173
sg14
I01
sg15
I0
sg16
I0
sg17
(lp174
sg32
I0
sba(i__main__
PhysicalMachine
p175
(dp176
g11
I0
sg12
S'14'
p177
sg14
I01
sg15
I0
sg16
I0
sg17
(lp178
sg32
I0
sba(i__main__
PhysicalMachine
p179
(dp180
g11
I0
sg12
S'15'
p181
sg14
I01
sg15
I0
sg16
I0
sg17
(lp182
sg32
I0
sba(i__main__
PhysicalMachine
p183
(dp184
g11
I0
sg12
S'16'
p185
sg14
I01
sg15
I0
sg16
I0
sg17
(lp186
sg32
I0
sba(i__main__
PhysicalMachine
p187
(dp188
g11
I0
sg12
S'17'
p189
sg14
I01
sg15
I0
sg16
I0
sg17
(lp190
sg32
I0
sba(i__main__
PhysicalMachine
p191
(dp192
g11
I0
sg12
S'18'
p193
sg14
I01
sg15
I0
sg16
I0
sg17
(lp194
sg32
I0
sba(i__main__
PhysicalMachine
p195
(dp196
g11
I0
sg12
S'19'
p197
sg14
I01
sg15
I0
sg16
I0
sg17
(lp198
sg32
I0
sba(i__main__
PhysicalMachine
p199
(dp200
g11
I0
sg12
S'20'
p201
sg14
I01
sg15
I0
sg16
I0
sg17
(lp202
sg32
I0
sba(i__main__
PhysicalMachine
p203
(dp204
g11
I0
sg12
S'21'
p205
sg14
I01
sg15
I0
sg16
I0
sg17
(lp206
sg32
I0
sba(i__main__
PhysicalMachine
p207
(dp208
g11
I0
sg12
S'22'
p209
sg14
I01
sg15
I0
sg16
I0
sg17
(lp210
sg32
I0
sba(i__main__
PhysicalMachine
p211
(dp212
g11
I0
sg12
S'23'
p213
sg14
I01
sg15
I0
sg16
I0
sg17
(lp214
sg32
I0
sba(i__main__
PhysicalMachine
p215
(dp216
g11
I0
sg12
S'24'
p217
sg14
I01
sg15
I0
sg16
I0
sg17
(lp218
sg32
I0
sba(i__main__
PhysicalMachine
p219
(dp220
g11
I0
sg12
S'25'
p221
sg14
I01
sg15
I0
sg16
I0
sg17
(lp222
sg32
I0
sba(i__main__
PhysicalMachine
p223
(dp224
g11
I0
sg12
S'26'
p225
sg14
I01
sg15
I0
sg16
I0
sg17
(lp226
sg32
I0
sba(i__main__
PhysicalMachine
p227
(dp228
g11
I0
sg12
S'27'
p229
sg14
I01
sg15
I0
sg16
I0
sg17
(lp230
sg32
I0
sba(i__main__
PhysicalMachine
p231
(dp232
g11
I0
sg12
S'28'
p233
sg14
I01
sg15
I0
sg16
I0
sg17
(lp234
sg32
I0
sba(i__main__
PhysicalMachine
p235
(dp236
g11
I0
sg12
S'29'
p237
sg14
I01
sg15
I0
sg16
I0
sg17
(lp238
sg32
I0
sba(i__main__
PhysicalMachine
p239
(dp240
g11
I0
sg12
S'30'
p241
sg14
I01
sg15
I0
sg16
I0
sg17
(lp242
sg32
I0
sba(i__main__
PhysicalMachine
p243
(dp244
g11
I0
sg12
S'31'
p245
sg14
I01
sg15
I0
sg16
I0
sg17
(lp246
sg32
I0
sba(i__main__
PhysicalMachine
p247
(dp248
g11
I0
sg12
S'32'
p249
sg14
I01
sg15
I0
sg16
I0
sg17
(lp250
sg32
I0
sba(i__main__
PhysicalMachine
p251
(dp252
g11
I0
sg12
S'33'
p253
sg14
I01
sg15
I0
sg16
I0
sg17
(lp254
sg32
I0
sba(i__main__
PhysicalMachine
p255
(dp256
g11
I0
sg12
S'34'
p257
sg14
I01
sg15
I0
sg16
I0
sg17
(lp258
sg32
I0
sba(i__main__
PhysicalMachine
p259
(dp260
g11
I0
sg12
S'35'
p261
sg14
I01
sg15
I0
sg16
I0
sg17
(lp262
sg32
I0
sba(i__main__
PhysicalMachine
p263
(dp264
g11
I0
sg12
S'36'
p265
sg14
I01
sg15
I0
sg16
I0
sg17
(lp266
sg32
I0
sba(i__main__
PhysicalMachine
p267
(dp268
g11
I0
sg12
S'37'
p269
sg14
I01
sg15
I0
sg16
I0
sg17
(lp270
sg32
I0
sba(i__main__
PhysicalMachine
p271
(dp272
g11
I0
sg12
S'38'
p273
sg14
I01
sg15
I0
sg16
I0
sg17
(lp274
sg32
I0
sba(i__main__
PhysicalMachine
p275
(dp276
g11
I0
sg12
S'39'
p277
sg14
I01
sg15
I0
sg16
I0
sg17
(lp278
sg32
I0
sba(i__main__
PhysicalMachine
p279
(dp280
g11
I0
sg12
S'40'
p281
sg14
I01
sg15
I0
sg16
I0
sg17
(lp282
sg32
I0
sba(i__main__
PhysicalMachine
p283
(dp284
g11
I0
sg12
S'41'
p285
sg14
I01
sg15
I0
sg16
I0
sg17
(lp286
sg32
I0
sba(i__main__
PhysicalMachine
p287
(dp288
g11
I0
sg12
S'42'
p289
sg14
I01
sg15
I0
sg16
I0
sg17
(lp290
sg32
I0
sba(i__main__
PhysicalMachine
p291
(dp292
g11
I0
sg12
S'43'
p293
sg14
I01
sg15
I0
sg16
I0
sg17
(lp294
sg32
I0
sba(i__main__
PhysicalMachine
p295
(dp296
g11
I0
sg12
S'44'
p297
sg14
I01
sg15
I0
sg16
I0
sg17
(lp298
sg32
I0
sba(i__main__
PhysicalMachine
p299
(dp300
g11
I0
sg12
S'45'
p301
sg14
I01
sg15
I0
sg16
I0
sg17
(lp302
sg32
I0
sba(i__main__
PhysicalMachine
p303
(dp304
g11
I0
sg12
S'46'
p305
sg14
I01
sg15
I0
sg16
I0
sg17
(lp306
sg32
I0
sba(i__main__
PhysicalMachine
p307
(dp308
g11
I0
sg12
S'47'
p309
sg14
I01
sg15
I0
sg16
I0
sg17
(lp310
sg32
I0
sba(i__main__
PhysicalMachine
p311
(dp312
g11
I0
sg12
S'48'
p313
sg14
I01
sg15
I0
sg16
I0
sg17
(lp314
sg32
I0
sba(i__main__
PhysicalMachine
p315
(dp316
g11
I0
sg12
S'49'
p317
sg14
I01
sg15
I0
sg16
I0
sg17
(lp318
sg32
I0
sba(i__main__
PhysicalMachine
p319
(dp320
g11
I0
sg12
S'50'
p321
sg14
I01
sg15
I0
sg16
I0
sg17
(lp322
sg32
I0
sba(i__main__
PhysicalMachine
p323
(dp324
g11
I0
sg12
S'51'
p325
sg14
I01
sg15
I0
sg16
I0
sg17
(lp326
sg32
I0
sba(i__main__
PhysicalMachine
p327
(dp328
g11
I0
sg12
S'52'
p329
sg14
I01
sg15
I0
sg16
I0
sg17
(lp330
sg32
I0
sba(i__main__
PhysicalMachine
p331
(dp332
g11
I0
sg12
S'53'
p333
sg14
I01
sg15
I0
sg16
I0
sg17
(lp334
sg32
I0
sba(i__main__
PhysicalMachine
p335
(dp336
g11
I0
sg12
S'54'
p337
sg14
I01
sg15
I0
sg16
I0
sg17
(lp338
sg32
I0
sba(i__main__
PhysicalMachine
p339
(dp340
g11
I0
sg12
S'55'
p341
sg14
I01
sg15
I0
sg16
I0
sg17
(lp342
sg32
I0
sba(i__main__
PhysicalMachine
p343
(dp344
g11
I0
sg12
S'56'
p345
sg14
I01
sg15
I0
sg16
I0
sg17
(lp346
sg32
I0
sba(i__main__
PhysicalMachine
p347
(dp348
g11
I0
sg12
S'57'
p349
sg14
I01
sg15
I0
sg16
I0
sg17
(lp350
sg32
I0
sba(i__main__
PhysicalMachine
p351
(dp352
g11
I0
sg12
S'58'
p353
sg14
I01
sg15
I0
sg16
I0
sg17
(lp354
sg32
I0
sba(i__main__
PhysicalMachine
p355
(dp356
g11
I0
sg12
S'59'
p357
sg14
I01
sg15
I0
sg16
I0
sg17
(lp358
sg32
I0
sba(i__main__
PhysicalMachine
p359
(dp360
g11
I0
sg12
S'60'
p361
sg14
I01
sg15
I0
sg16
I0
sg17
(lp362
sg32
I0
sba(i__main__
PhysicalMachine
p363
(dp364
g11
I0
sg12
S'61'
p365
sg14
I01
sg15
I0
sg16
I0
sg17
(lp366
sg32
I0
sba(i__main__
PhysicalMachine
p367
(dp368
g11
I0
sg12
S'62'
p369
sg14
I01
sg15
I0
sg16
I0
sg17
(lp370
sg32
I0
sba(i__main__
PhysicalMachine
p371
(dp372
g11
I0
sg12
S'63'
p373
sg14
I01
sg15
I0
sg16
I0
sg17
(lp374
sg32
I0
sba(i__main__
PhysicalMachine
p375
(dp376
g11
I0
sg12
S'64'
p377
sg14
I01
sg15
I0
sg16
I0
sg17
(lp378
sg32
I0
sba(i__main__
PhysicalMachine
p379
(dp380
g11
I0
sg12
S'65'
p381
sg14
I01
sg15
I0
sg16
I0
sg17
(lp382
sg32
I0
sba(i__main__
PhysicalMachine
p383
(dp384
g11
I0
sg12
S'66'
p385
sg14
I01
sg15
I0
sg16
I0
sg17
(lp386
sg32
I0
sba(i__main__
PhysicalMachine
p387
(dp388
g11
I0
sg12
S'67'
p389
sg14
I01
sg15
I0
sg16
I0
sg17
(lp390
sg32
I0
sba(i__main__
PhysicalMachine
p391
(dp392
g11
I0
sg12
S'68'
p393
sg14
I01
sg15
I0
sg16
I0
sg17
(lp394
sg32
I0
sba(i__main__
PhysicalMachine
p395
(dp396
g11
I0
sg12
S'69'
p397
sg14
I01
sg15
I0
sg16
I0
sg17
(lp398
sg32
I0
sba(i__main__
PhysicalMachine
p399
(dp400
g11
I0
sg12
S'70'
p401
sg14
I01
sg15
I0
sg16
I0
sg17
(lp402
sg32
I0
sba(i__main__
PhysicalMachine
p403
(dp404
g11
I0
sg12
S'71'
p405
sg14
I01
sg15
I0
sg16
I0
sg17
(lp406
sg32
I0
sbasbsS'energy_consumed'
p407
F1024.28
sS'start_time'
p408
F1383314034.141344
sS'physical_machines_used'
p409
I3
sS'strategy'
p410
(i__main__
EvolutionaryComputationStrategyPlacement
p411
(dp412
S'pmm'
p413
(i__main__
PMManager
p414
(dp415
g7
(lp416
(i__main__
PhysicalMachine
p417
(dp418
g11
I57
sg12
S'0'
p419
sg14
I00
sg15
I65
sg16
I62
sg17
(lp420
g19
(g20
g21
(dp421
tp422
Rp423
(dp424
g12
S'8'
p425
sg27
(dp426
g29
I1
sg11
I15
sg30
I1
sg31
I1
sg15
I16
sg16
I16
sg32
I15
ssbag19
(g20
g21
(dp427
tp428
Rp429
(dp430
g12
S'104'
p431
sg27
(dp432
g29
I1
sg11
I15
sg30
I1
sg31
I1
sg15
I17
sg16
I15
sg32
I15
ssbag19
(g20
g21
(dp433
tp434
Rp435
(dp436
g12
S'136'
p437
sg27
(dp438
g29
I1
sg11
I13
sg30
I1
sg31
I1
sg15
I16
sg16
I15
sg32
I16
ssbag19
(g20
g21
(dp439
tp440
Rp441
(dp442
g12
S'143'
p443
sg27
(dp444
g29
I1
sg11
I14
sg30
I1
sg31
I1
sg15
I16
sg16
I16
sg32
I15
ssbasg32
I61
sba(i__main__
PhysicalMachine
p445
(dp446
g11
I60
sg12
S'1'
p447
sg14
I00
sg15
I61
sg16
I60
sg17
(lp448
g19
(g20
g21
(dp449
tp450
Rp451
(dp452
g12
S'2'
p453
sg27
(dp454
g29
I1
sg11
I15
sg30
I1
sg31
I1
sg15
I16
sg16
I15
sg32
I16
ssbag19
(g20
g21
(dp455
tp456
Rp457
(dp458
g12
S'74'
p459
sg27
(dp460
g29
I1
sg11
I16
sg30
I1
sg31
I1
sg15
I15
sg16
I15
sg32
I16
ssbag19
(g20
g21
(dp461
tp462
Rp463
(dp464
g12
S'88'
p465
sg27
(dp466
g29
I1
sg11
I14
sg30
I1
sg31
I1
sg15
I15
sg16
I15
sg32
I15
ssbag19
(g20
g21
(dp467
tp468
Rp469
(dp470
g12
S'100'
p471
sg27
(dp472
g29
I1
sg11
I15
sg30
I1
sg31
I1
sg15
I15
sg16
I15
sg32
I15
ssbasg32
I62
sba(i__main__
PhysicalMachine
p473
(dp474
g11
I77
sg12
S'2'
p475
sg14
I00
sg15
I81
sg16
I75
sg17
(lp476
g19
(g20
g21
(dp477
tp478
Rp479
(dp480
g12
S'49'
p481
sg27
(dp482
g29
I1
sg11
I16
sg30
I1
sg31
I1
sg15
I16
sg16
I14
sg32
I16
ssbag19
(g20
g21
(dp483
tp484
Rp485
(dp486
g12
S'82'
p487
sg27
(dp488
g29
I1
sg11
I15
sg30
I1
sg31
I1
sg15
I16
sg16
I15
sg32
I15
ssbag19
(g20
g21
(dp489
tp490
Rp491
(dp492
g12
S'91'
p493
sg27
(dp494
g29
I1
sg11
I15
sg30
I1
sg31
I1
sg15
I16
sg16
I15
sg32
I16
ssbag19
(g20
g21
(dp495
tp496
Rp497
(dp498
g12
S'92'
p499
sg27
(dp500
g29
I1
sg11
I16
sg30
I1
sg31
I1
sg15
I16
sg16
I16
sg32
I15
ssbag19
(g20
g21
(dp501
tp502
Rp503
(dp504
g12
S'109'
p505
sg27
(dp506
g29
I1
sg11
I15
sg30
I1
sg31
I1
sg15
I17
sg16
I15
sg32
I17
ssbasg32
I79
sba(i__main__
PhysicalMachine
p507
(dp508
g11
I76
sg12
S'3'
p509
sg14
I00
sg15
I74
sg16
I74
sg17
(lp510
g19
(g20
g21
(dp511
tp512
Rp513
(dp514
g12
S'11'
p515
sg27
(dp516
g29
I1
sg11
I15
sg30
I1
sg31
I1
sg15
I14
sg16
I13
sg32
I15
ssbag19
(g20
g21
(dp517
tp518
Rp519
(dp520
g12
S'21'
p521
sg27
(dp522
g29
I1
sg11
I16
sg30
I1
sg31
I1
sg15
I15
sg16
I16
sg32
I15
ssbag19
(g20
g21
(dp523
tp524
Rp525
(dp526
g12
S'33'
p527
sg27
(dp528
g29
I1
sg11
I15
sg30
I1
sg31
I1
sg15
I15
sg16
I16
sg32
I15
ssbag19
(g20
g21
(dp529
tp530
Rp531
(dp532
g12
S'45'
p533
sg27
(dp534
g29
I1
sg11
I15
sg30
I1
sg31
I1
sg15
I16
sg16
I14
sg32
I16
ssbag19
(g20
g21
(dp535
tp536
Rp537
(dp538
g12
S'106'
p539
sg27
(dp540
g29
I1
sg11
I15
sg30
I1
sg31
I1
sg15
I14
sg16
I15
sg32
I16
ssbasg32
I77
sba(i__main__
PhysicalMachine
p541
(dp542
g11
I56
sg12
S'4'
p543
sg14
I00
sg15
I60
sg16
I61
sg17
(lp544
g19
(g20
g21
(dp545
tp546
Rp547
(dp548
g12
S'29'
p549
sg27
(dp550
g29
I1
sg11
I15
sg30
I1
sg31
I1
sg15
I16
sg16
I16
sg32
I15
ssbag19
(g20
g21
(dp551
tp552
Rp553
(dp554
g12
S'31'
p555
sg27
(dp556
g29
I1
sg11
I12
sg30
I1
sg31
I1
sg15
I14
sg16
I15
sg32
I17
ssbag19
(g20
g21
(dp557
tp558
Rp559
(dp560
g12
S'99'
p561
sg27
(dp562
g29
I1
sg11
I14
sg30
I1
sg31
I1
sg15
I15
sg16
I15
sg32
I16
ssbag19
(g20
g21
(dp563
tp564
Rp565
(dp566
g12
S'138'
p567
sg27
(dp568
g29
I1
sg11
I15
sg30
I1
sg31
I1
sg15
I15
sg16
I15
sg32
I15
ssbasg32
I63
sba(i__main__
PhysicalMachine
p569
(dp570
g11
I95
sg12
S'5'
p571
sg14
I00
sg15
I88
sg16
I88
sg17
(lp572
g19
(g20
g21
(dp573
tp574
Rp575
(dp576
g12
S'46'
p577
sg27
(dp578
g29
I1
sg11
I15
sg30
I1
sg31
I1
sg15
I13
sg16
I16
sg32
I15
ssbag19
(g20
g21
(dp579
tp580
Rp581
(dp582
g12
S'84'
p583
sg27
(dp584
g29
I1
sg11
I16
sg30
I1
sg31
I1
sg15
I16
sg16
I16
sg32
I14
ssbag19
(g20
g21
(dp585
tp586
Rp587
(dp588
g12
S'86'
p589
sg27
(dp590
g29
I1
sg11
I17
sg30
I1
sg31
I1
sg15
I15
sg16
I14
sg32
I15
ssbag19
(g20
g21
(dp591
tp592
Rp593
(dp594
g12
S'94'
p595
sg27
(dp596
g29
I1
sg11
I15
sg30
I1
sg31
I1
sg15
I15
sg16
I13
sg32
I16
ssbag19
(g20
g21
(dp597
tp598
Rp599
(dp600
g12
S'117'
p601
sg27
(dp602
g29
I1
sg11
I16
sg30
I1
sg31
I1
sg15
I14
sg16
I15
sg32
I16
ssbag19
(g20
g21
(dp603
tp604
Rp605
(dp606
g12
S'133'
p607
sg27
(dp608
g29
I1
sg11
I16
sg30
I1
sg31
I1
sg15
I15
sg16
I14
sg32
I15
ssbasg32
I91
sba(i__main__
PhysicalMachine
p609
(dp610
g11
I59
sg12
S'6'
p611
sg14
I00
sg15
I64
sg16
I62
sg17
(lp612
g19
(g20
g21
(dp613
tp614
Rp615
(dp616
g12
S'1'
p617
sg27
(dp618
g29
I1
sg11
I16
sg30
I1
sg31
I1
sg15
I16
sg16
I14
sg32
I15
ssbag19
(g20
g21
(dp619
tp620
Rp621
(dp622
g12
S'95'
p623
sg27
(dp624
g29
I1
sg11
I15
sg30
I1
sg31
I1
sg15
I15
sg16
I16
sg32
I14
ssbag19
(g20
g21
(dp625
tp626
Rp627
(dp628
g12
S'110'
p629
sg27
(dp630
g29
I1
sg11
I15
sg30
I1
sg31
I1
sg15
I16
sg16
I16
sg32
I14
ssbag19
(g20
g21
(dp631
tp632
Rp633
(dp634
g12
S'113'
p635
sg27
(dp636
g29
I1
sg11
I13
sg30
I1
sg31
I1
sg15
I17
sg16
I16
sg32
I15
ssbasg32
I58
sba(i__main__
PhysicalMachine
p637
(dp638
g11
I94
sg12
S'7'
p639
sg14
I00
sg15
I92
sg16
I91
sg17
(lp640
g19
(g20
g21
(dp641
tp642
Rp643
(dp644
g12
S'3'
p645
sg27
(dp646
g29
I1
sg11
I14
sg30
I1
sg31
I1
sg15
I16
sg16
I15
sg32
I16
ssbag19
(g20
g21
(dp647
tp648
Rp649
(dp650
g12
S'16'
p651
sg27
(dp652
g29
I1
sg11
I15
sg30
I1
sg31
I1
sg15
I15
sg16
I15
sg32
I14
ssbag19
(g20
g21
(dp653
tp654
Rp655
(dp656
g12
S'42'
p657
sg27
(dp658
g29
I1
sg11
I18
sg30
I1
sg31
I1
sg15
I16
sg16
I16
sg32
I16
ssbag19
(g20
g21
(dp659
tp660
Rp661
(dp662
g12
S'80'
p663
sg27
(dp664
g29
I1
sg11
I15
sg30
I1
sg31
I1
sg15
I16
sg16
I15
sg32
I16
ssbag19
(g20
g21
(dp665
tp666
Rp667
(dp668
g12
S'124'
p669
sg27
(dp670
g29
I1
sg11
I16
sg30
I1
sg31
I1
sg15
I14
sg16
I15
sg32
I15
ssbag19
(g20
g21
(dp671
tp672
Rp673
(dp674
g12
S'140'
p675
sg27
(dp676
g29
I1
sg11
I16
sg30
I1
sg31
I1
sg15
I15
sg16
I15
sg32
I13
ssbasg32
I90
sba(i__main__
PhysicalMachine
p677
(dp678
g11
I86
sg12
S'8'
p679
sg14
I00
sg15
I94
sg16
I91
sg17
(lp680
g19
(g20
g21
(dp681
tp682
Rp683
(dp684
g12
S'9'
p685
sg27
(dp686
g29
I1
sg11
I14
sg30
I1
sg31
I1
sg15
I16
sg16
I15
sg32
I16
ssbag19
(g20
g21
(dp687
tp688
Rp689
(dp690
g12
S'28'
p691
sg27
(dp692
g29
I1
sg11
I15
sg30
I1
sg31
I1
sg15
I15
sg16
I15
sg32
I15
ssbag19
(g20
g21
(dp693
tp694
Rp695
(dp696
g12
S'52'
p697
sg27
(dp698
g29
I1
sg11
I15
sg30
I1
sg31
I1
sg15
I15
sg16
I14
sg32
I16
ssbag19
(g20
g21
(dp699
tp700
Rp701
(dp702
g12
S'62'
p703
sg27
(dp704
g29
I1
sg11
I15
sg30
I1
sg31
I1
sg15
I16
sg16
I17
sg32
I14
ssbag19
(g20
g21
(dp705
tp706
Rp707
(dp708
g12
S'105'
p709
sg27
(dp710
g29
I1
sg11
I15
sg30
I1
sg31
I1
sg15
I16
sg16
I15
sg32
I15
ssbag19
(g20
g21
(dp711
tp712
Rp713
(dp714
g12
S'139'
p715
sg27
(dp716
g29
I1
sg11
I12
sg30
I1
sg31
I1
sg15
I16
sg16
I15
sg32
I16
ssbasg32
I92
sba(i__main__
PhysicalMachine
p717
(dp718
g11
I91
sg12
S'9'
p719
sg14
I00
sg15
I92
sg16
I93
sg17
(lp720
g19
(g20
g21
(dp721
tp722
Rp723
(dp724
g12
S'26'
p725
sg27
(dp726
g29
I1
sg11
I15
sg30
I1
sg31
I1
sg15
I15
sg16
I16
sg32
I16
ssbag19
(g20
g21
(dp727
tp728
Rp729
(dp730
g12
S'32'
p731
sg27
(dp732
g29
I1
sg11
I15
sg30
I1
sg31
I1
sg15
I15
sg16
I17
sg32
I15
ssbag19
(g20
g21
(dp733
tp734
Rp735
(dp736
g12
S'38'
p737
sg27
(dp738
g29
I1
sg11
I16
sg30
I1
sg31
I1
sg15
I14
sg16
I16
sg32
I15
ssbag19
(g20
g21
(dp739
tp740
Rp741
(dp742
g12
S'112'
p743
sg27
(dp744
g29
I1
sg11
I16
sg30
I1
sg31
I1
sg15
I16
sg16
I15
sg32
I16
ssbag19
(g20
g21
(dp745
tp746
Rp747
(dp748
g12
S'126'
p749
sg27
(dp750
g29
I1
sg11
I15
sg30
I1
sg31
I1
sg15
I16
sg16
I16
sg32
I14
ssbag19
(g20
g21
(dp751
tp752
Rp753
(dp754
g12
S'142'
p755
sg27
(dp756
g29
I1
sg11
I14
sg30
I1
sg31
I1
sg15
I16
sg16
I13
sg32
I17
ssbasg32
I93
sba(i__main__
PhysicalMachine
p757
(dp758
g11
I91
sg12
S'10'
p759
sg14
I00
sg15
I89
sg16
I90
sg17
(lp760
g19
(g20
g21
(dp761
tp762
Rp763
(dp764
g12
S'4'
p765
sg27
(dp766
g29
I1
sg11
I15
sg30
I1
sg31
I1
sg15
I14
sg16
I13
sg32
I16
ssbag19
(g20
g21
(dp767
tp768
Rp769
(dp770
g12
S'25'
p771
sg27
(dp772
g29
I1
sg11
I16
sg30
I1
sg31
I1
sg15
I16
sg16
I14
sg32
I15
ssbag19
(g20
g21
(dp773
tp774
Rp775
(dp776
g12
S'60'
p777
sg27
(dp778
g29
I1
sg11
I17
sg30
I1
sg31
I1
sg15
I15
sg16
I16
sg32
I16
ssbag19
(g20
g21
(dp779
tp780
Rp781
(dp782
g12
S'69'
p783
sg27
(dp784
g29
I1
sg11
I15
sg30
I1
sg31
I1
sg15
I15
sg16
I15
sg32
I16
ssbag19
(g20
g21
(dp785
tp786
Rp787
(dp788
g12
S'87'
p789
sg27
(dp790
g29
I1
sg11
I15
sg30
I1
sg31
I1
sg15
I15
sg16
I16
sg32
I13
ssbag19
(g20
g21
(dp791
tp792
Rp793
(dp794
g12
S'128'
p795
sg27
(dp796
g29
I1
sg11
I13
sg30
I1
sg31
I1
sg15
I14
sg16
I16
sg32
I17
ssbasg32
I93
sba(i__main__
PhysicalMachine
p797
(dp798
g11
I94
sg12
S'11'
p799
sg14
I00
sg15
I89
sg16
I93
sg17
(lp800
g19
(g20
g21
(dp801
tp802
Rp803
(dp804
g12
S'47'
p805
sg27
(dp806
g29
I1
sg11
I17
sg30
I1
sg31
I1
sg15
I13
sg16
I16
sg32
I16
ssbag19
(g20
g21
(dp807
tp808
Rp809
(dp810
g12
S'59'
p811
sg27
(dp812
g29
I1
sg11
I16
sg30
I1
sg31
I1
sg15
I16
sg16
I15
sg32
I16
ssbag19
(g20
g21
(dp813
tp814
Rp815
(dp816
g12
S'63'
p817
sg27
(dp818
g29
I1
sg11
I16
sg30
I1
sg31
I1
sg15
I14
sg16
I16
sg32
I16
ssbag19
(g20
g21
(dp819
tp820
Rp821
(dp822
g12
S'89'
p823
sg27
(dp824
g29
I1
sg11
I14
sg30
I1
sg31
I1
sg15
I14
sg16
I16
sg32
I15
ssbag19
(g20
g21
(dp825
tp826
Rp827
(dp828
g12
S'98'
p829
sg27
(dp830
g29
I1
sg11
I16
sg30
I1
sg31
I1
sg15
I16
sg16
I15
sg32
I15
ssbag19
(g20
g21
(dp831
tp832
Rp833
(dp834
g12
S'118'
p835
sg27
(dp836
g29
I1
sg11
I15
sg30
I1
sg31
I1
sg15
I16
sg16
I15
sg32
I13
ssbasg32
I91
sba(i__main__
PhysicalMachine
p837
(dp838
g11
I94
sg12
S'12'
p839
sg14
I00
sg15
I90
sg16
I91
sg17
(lp840
g19
(g20
g21
(dp841
tp842
Rp843
(dp844
g12
S'20'
p845
sg27
(dp846
g29
I1
sg11
I16
sg30
I1
sg31
I1
sg15
I15
sg16
I16
sg32
I16
ssbag19
(g20
g21
(dp847
tp848
Rp849
(dp850
g12
S'65'
p851
sg27
(dp852
g29
I1
sg11
I16
sg30
I1
sg31
I1
sg15
I17
sg16
I15
sg32
I16
ssbag19
(g20
g21
(dp853
tp854
Rp855
(dp856
g12
S'85'
p857
sg27
(dp858
g29
I1
sg11
I15
sg30
I1
sg31
I1
sg15
I14
sg16
I16
sg32
I17
ssbag19
(g20
g21
(dp859
tp860
Rp861
(dp862
g12
S'115'
p863
sg27
(dp864
g29
I1
sg11
I15
sg30
I1
sg31
I1
sg15
I15
sg16
I15
sg32
I15
ssbag19
(g20
g21
(dp865
tp866
Rp867
(dp868
g12
S'121'
p869
sg27
(dp870
g29
I1
sg11
I16
sg30
I1
sg31
I1
sg15
I14
sg16
I16
sg32
I16
ssbag19
(g20
g21
(dp871
tp872
Rp873
(dp874
g12
S'125'
p875
sg27
(dp876
g29
I1
sg11
I16
sg30
I1
sg31
I1
sg15
I15
sg16
I13
sg32
I16
ssbasg32
I96
sba(i__main__
PhysicalMachine
p877
(dp878
g11
I93
sg12
S'13'
p879
sg14
I00
sg15
I90
sg16
I93
sg17
(lp880
g19
(g20
g21
(dp881
tp882
Rp883
(dp884
g12
S'14'
p885
sg27
(dp886
g29
I1
sg11
I14
sg30
I1
sg31
I1
sg15
I15
sg16
I15
sg32
I17
ssbag19
(g20
g21
(dp887
tp888
Rp889
(dp890
g12
S'17'
p891
sg27
(dp892
g29
I1
sg11
I16
sg30
I1
sg31
I1
sg15
I15
sg16
I14
sg32
I14
ssbag19
(g20
g21
(dp893
tp894
Rp895
(dp896
g12
S'48'
p897
sg27
(dp898
g29
I1
sg11
I16
sg30
I1
sg31
I1
sg15
I14
sg16
I16
sg32
I16
ssbag19
(g20
g21
(dp899
tp900
Rp901
(dp902
g12
S'79'
p903
sg27
(dp904
g29
I1
sg11
I15
sg30
I1
sg31
I1
sg15
I16
sg16
I15
sg32
I14
ssbag19
(g20
g21
(dp905
tp906
Rp907
(dp908
g12
S'90'
p909
sg27
(dp910
g29
I1
sg11
I16
sg30
I1
sg31
I1
sg15
I14
sg16
I16
sg32
I17
ssbag19
(g20
g21
(dp911
tp912
Rp913
(dp914
g12
S'119'
p915
sg27
(dp916
g29
I1
sg11
I16
sg30
I1
sg31
I1
sg15
I16
sg16
I17
sg32
I13
ssbasg32
I91
sba(i__main__
PhysicalMachine
p917
(dp918
g11
I92
sg12
S'14'
p919
sg14
I00
sg15
I86
sg16
I92
sg17
(lp920
g19
(g20
g21
(dp921
tp922
Rp923
(dp924
g12
S'24'
p925
sg27
(dp926
g29
I1
sg11
I15
sg30
I1
sg31
I1
sg15
I13
sg16
I16
sg32
I16
ssbag19
(g20
g21
(dp927
tp928
Rp929
(dp930
g12
S'50'
p931
sg27
(dp932
g29
I1
sg11
I16
sg30
I1
sg31
I1
sg15
I15
sg16
I14
sg32
I15
ssbag19
(g20
g21
(dp933
tp934
Rp935
(dp936
g12
S'73'
p937
sg27
(dp938
g29
I1
sg11
I15
sg30
I1
sg31
I1
sg15
I14
sg16
I16
sg32
I16
ssbag19
(g20
g21
(dp939
tp940
Rp941
(dp942
g12
S'102'
p943
sg27
(dp944
g29
I1
sg11
I15
sg30
I1
sg31
I1
sg15
I14
sg16
I14
sg32
I17
ssbag19
(g20
g21
(dp945
tp946
Rp947
(dp948
g12
S'127'
p949
sg27
(dp950
g29
I1
sg11
I15
sg30
I1
sg31
I1
sg15
I15
sg16
I16
sg32
I16
ssbag19
(g20
g21
(dp951
tp952
Rp953
(dp954
g12
S'137'
p955
sg27
(dp956
g29
I1
sg11
I16
sg30
I1
sg31
I1
sg15
I15
sg16
I16
sg32
I17
ssbasg32
I97
sba(i__main__
PhysicalMachine
p957
(dp958
g11
I89
sg12
S'15'
p959
sg14
I00
sg15
I95
sg16
I90
sg17
(lp960
g19
(g20
g21
(dp961
tp962
Rp963
(dp964
g12
S'5'
p965
sg27
(dp966
g29
I1
sg11
I16
sg30
I1
sg31
I1
sg15
I16
sg16
I16
sg32
I16
ssbag19
(g20
g21
(dp967
tp968
Rp969
(dp970
g12
S'27'
p971
sg27
(dp972
g29
I1
sg11
I15
sg30
I1
sg31
I1
sg15
I16
sg16
I15
sg32
I14
ssbag19
(g20
g21
(dp973
tp974
Rp975
(dp976
g12
S'34'
p977
sg27
(dp978
g29
I1
sg11
I15
sg30
I1
sg31
I1
sg15
I16
sg16
I14
sg32
I15
ssbag19
(g20
g21
(dp979
tp980
Rp981
(dp982
g12
S'35'
p983
sg27
(dp984
g29
I1
sg11
I14
sg30
I1
sg31
I1
sg15
I15
sg16
I14
sg32
I17
ssbag19
(g20
g21
(dp985
tp986
Rp987
(dp988
g12
S'116'
p989
sg27
(dp990
g29
I1
sg11
I13
sg30
I1
sg31
I1
sg15
I16
sg16
I15
sg32
I14
ssbag19
(g20
g21
(dp991
tp992
Rp993
(dp994
g12
S'135'
p995
sg27
(dp996
g29
I1
sg11
I16
sg30
I1
sg31
I1
sg15
I16
sg16
I16
sg32
I14
ssbasg32
I90
sba(i__main__
PhysicalMachine
p997
(dp998
g11
I85
sg12
S'16'
p999
sg14
I00
sg15
I96
sg16
I91
sg17
(lp1000
g19
(g20
g21
(dp1001
tp1002
Rp1003
(dp1004
g12
S'51'
p1005
sg27
(dp1006
g29
I1
sg11
I14
sg30
I1
sg31
I1
sg15
I13
sg16
I15
sg32
I16
ssbag19
(g20
g21
(dp1007
tp1008
Rp1009
(dp1010
g12
S'53'
p1011
sg27
(dp1012
g29
I1
sg11
I13
sg30
I1
sg31
I1
sg15
I16
sg16
I15
sg32
I16
ssbag19
(g20
g21
(dp1013
tp1014
Rp1015
(dp1016
g12
S'56'
p1017
sg27
(dp1018
g29
I1
sg11
I16
sg30
I1
sg31
I1
sg15
I17
sg16
I14
sg32
I13
ssbag19
(g20
g21
(dp1019
tp1020
Rp1021
(dp1022
g12
S'64'
p1023
sg27
(dp1024
g29
I1
sg11
I15
sg30
I1
sg31
I1
sg15
I16
sg16
I16
sg32
I13
ssbag19
(g20
g21
(dp1025
tp1026
Rp1027
(dp1028
g12
S'70'
p1029
sg27
(dp1030
g29
I1
sg11
I13
sg30
I1
sg31
I1
sg15
I17
sg16
I16
sg32
I14
ssbag19
(g20
g21
(dp1031
tp1032
Rp1033
(dp1034
g12
S'134'
p1035
sg27
(dp1036
g29
I1
sg11
I14
sg30
I1
sg31
I1
sg15
I17
sg16
I15
sg32
I16
ssbasg32
I88
sba(i__main__
PhysicalMachine
p1037
(dp1038
g11
I96
sg12
S'17'
p1039
sg14
I00
sg15
I92
sg16
I95
sg17
(lp1040
g19
(g20
g21
(dp1041
tp1042
Rp1043
(dp1044
g12
S'7'
p1045
sg27
(dp1046
g29
I1
sg11
I15
sg30
I1
sg31
I1
sg15
I14
sg16
I16
sg32
I15
ssbag19
(g20
g21
(dp1047
tp1048
Rp1049
(dp1050
g12
S'55'
p1051
sg27
(dp1052
g29
I1
sg11
I16
sg30
I1
sg31
I1
sg15
I16
sg16
I15
sg32
I15
ssbag19
(g20
g21
(dp1053
tp1054
Rp1055
(dp1056
g12
S'76'
p1057
sg27
(dp1058
g29
I1
sg11
I16
sg30
I1
sg31
I1
sg15
I13
sg16
I15
sg32
I14
ssbag19
(g20
g21
(dp1059
tp1060
Rp1061
(dp1062
g12
S'120'
p1063
sg27
(dp1064
g29
I1
sg11
I16
sg30
I1
sg31
I1
sg15
I16
sg16
I16
sg32
I14
ssbag19
(g20
g21
(dp1065
tp1066
Rp1067
(dp1068
g12
S'130'
p1069
sg27
(dp1070
g29
I1
sg11
I17
sg30
I1
sg31
I1
sg15
I17
sg16
I16
sg32
I15
ssbag19
(g20
g21
(dp1071
tp1072
Rp1073
(dp1074
g12
S'132'
p1075
sg27
(dp1076
g29
I1
sg11
I16
sg30
I1
sg31
I1
sg15
I16
sg16
I17
sg32
I15
ssbasg32
I88
sba(i__main__
PhysicalMachine
p1077
(dp1078
g11
I95
sg12
S'18'
p1079
sg14
I00
sg15
I86
sg16
I90
sg17
(lp1080
g19
(g20
g21
(dp1081
tp1082
Rp1083
(dp1084
g12
S'15'
p1085
sg27
(dp1086
g29
I1
sg11
I16
sg30
I1
sg31
I1
sg15
I13
sg16
I15
sg32
I15
ssbag19
(g20
g21
(dp1087
tp1088
Rp1089
(dp1090
g12
S'39'
p1091
sg27
(dp1092
g29
I1
sg11
I16
sg30
I1
sg31
I1
sg15
I14
sg16
I16
sg32
I13
ssbag19
(g20
g21
(dp1093
tp1094
Rp1095
(dp1096
g12
S'54'
p1097
sg27
(dp1098
g29
I1
sg11
I16
sg30
I1
sg31
I1
sg15
I14
sg16
I16
sg32
I15
ssbag19
(g20
g21
(dp1099
tp1100
Rp1101
(dp1102
g12
S'61'
p1103
sg27
(dp1104
g29
I1
sg11
I14
sg30
I1
sg31
I1
sg15
I15
sg16
I15
sg32
I16
ssbag19
(g20
g21
(dp1105
tp1106
Rp1107
(dp1108
g12
S'71'
p1109
sg27
(dp1110
g29
I1
sg11
I16
sg30
I1
sg31
I1
sg15
I15
sg16
I16
sg32
I14
ssbag19
(g20
g21
(dp1111
tp1112
Rp1113
(dp1114
g12
S'103'
p1115
sg27
(dp1116
g29
I1
sg11
I17
sg30
I1
sg31
I1
sg15
I15
sg16
I12
sg32
I14
ssbasg32
I87
sba(i__main__
PhysicalMachine
p1117
(dp1118
g11
I90
sg12
S'19'
p1119
sg14
I00
sg15
I90
sg16
I91
sg17
(lp1120
g19
(g20
g21
(dp1121
tp1122
Rp1123
(dp1124
g12
S'22'
p1125
sg27
(dp1126
g29
I1
sg11
I13
sg30
I1
sg31
I1
sg15
I16
sg16
I15
sg32
I15
ssbag19
(g20
g21
(dp1127
tp1128
Rp1129
(dp1130
g12
S'40'
p1131
sg27
(dp1132
g29
I1
sg11
I15
sg30
I1
sg31
I1
sg15
I16
sg16
I16
sg32
I16
ssbag19
(g20
g21
(dp1133
tp1134
Rp1135
(dp1136
g12
S'81'
p1137
sg27
(dp1138
g29
I1
sg11
I16
sg30
I1
sg31
I1
sg15
I15
sg16
I14
sg32
I16
ssbag19
(g20
g21
(dp1139
tp1140
Rp1141
(dp1142
g12
S'97'
p1143
sg27
(dp1144
g29
I1
sg11
I15
sg30
I1
sg31
I1
sg15
I14
sg16
I16
sg32
I16
ssbag19
(g20
g21
(dp1145
tp1146
Rp1147
(dp1148
g12
S'122'
p1149
sg27
(dp1150
g29
I1
sg11
I15
sg30
I1
sg31
I1
sg15
I14
sg16
I16
sg32
I15
ssbag19
(g20
g21
(dp1151
tp1152
Rp1153
(dp1154
g12
S'123'
p1155
sg27
(dp1156
g29
I1
sg11
I16
sg30
I1
sg31
I1
sg15
I15
sg16
I14
sg32
I13
ssbasg32
I91
sba(i__main__
PhysicalMachine
p1157
(dp1158
g11
I93
sg12
S'20'
p1159
sg14
I00
sg15
I92
sg16
I94
sg17
(lp1160
g19
(g20
g21
(dp1161
tp1162
Rp1163
(dp1164
g12
S'19'
p1165
sg27
(dp1166
g29
I1
sg11
I15
sg30
I1
sg31
I1
sg15
I16
sg16
I16
sg32
I15
ssbag19
(g20
g21
(dp1167
tp1168
Rp1169
(dp1170
g12
S'37'
p1171
sg27
(dp1172
g29
I1
sg11
I15
sg30
I1
sg31
I1
sg15
I17
sg16
I17
sg32
I15
ssbag19
(g20
g21
(dp1173
tp1174
Rp1175
(dp1176
g12
S'43'
p1177
sg27
(dp1178
g29
I1
sg11
I15
sg30
I1
sg31
I1
sg15
I15
sg16
I15
sg32
I15
ssbag19
(g20
g21
(dp1179
tp1180
Rp1181
(dp1182
g12
S'58'
p1183
sg27
(dp1184
g29
I1
sg11
I16
sg30
I1
sg31
I1
sg15
I15
sg16
I17
sg32
I17
ssbag19
(g20
g21
(dp1185
tp1186
Rp1187
(dp1188
g12
S'107'
p1189
sg27
(dp1190
g29
I1
sg11
I17
sg30
I1
sg31
I1
sg15
I14
sg16
I14
sg32
I15
ssbag19
(g20
g21
(dp1191
tp1192
Rp1193
(dp1194
g12
S'108'
p1195
sg27
(dp1196
g29
I1
sg11
I15
sg30
I1
sg31
I1
sg15
I15
sg16
I15
sg32
I15
ssbasg32
I92
sba(i__main__
PhysicalMachine
p1197
(dp1198
g11
I94
sg12
S'21'
p1199
sg14
I00
sg15
I88
sg16
I90
sg17
(lp1200
g19
(g20
g21
(dp1201
tp1202
Rp1203
(dp1204
g12
S'0'
p1205
sg27
(dp1206
g29
I1
sg11
I16
sg30
I1
sg31
I1
sg15
I15
sg16
I15
sg32
I14
ssbag19
(g20
g21
(dp1207
tp1208
Rp1209
(dp1210
g12
S'23'
p1211
sg27
(dp1212
g29
I1
sg11
I16
sg30
I1
sg31
I1
sg15
I14
sg16
I15
sg32
I15
ssbag19
(g20
g21
(dp1213
tp1214
Rp1215
(dp1216
g12
S'44'
p1217
sg27
(dp1218
g29
I1
sg11
I15
sg30
I1
sg31
I1
sg15
I14
sg16
I16
sg32
I13
ssbag19
(g20
g21
(dp1219
tp1220
Rp1221
(dp1222
g12
S'57'
p1223
sg27
(dp1224
g29
I1
sg11
I15
sg30
I1
sg31
I1
sg15
I15
sg16
I14
sg32
I13
ssbag19
(g20
g21
(dp1225
tp1226
Rp1227
(dp1228
g12
S'75'
p1229
sg27
(dp1230
g29
I1
sg11
I16
sg30
I1
sg31
I1
sg15
I15
sg16
I14
sg32
I16
ssbag19
(g20
g21
(dp1231
tp1232
Rp1233
(dp1234
g12
S'131'
p1235
sg27
(dp1236
g29
I1
sg11
I16
sg30
I1
sg31
I1
sg15
I15
sg16
I16
sg32
I16
ssbasg32
I87
sba(i__main__
PhysicalMachine
p1237
(dp1238
g11
I95
sg12
S'22'
p1239
sg14
I00
sg15
I92
sg16
I95
sg17
(lp1240
g19
(g20
g21
(dp1241
tp1242
Rp1243
(dp1244
g12
S'12'
p1245
sg27
(dp1246
g29
I1
sg11
I16
sg30
I1
sg31
I1
sg15
I14
sg16
I16
sg32
I16
ssbag19
(g20
g21
(dp1247
tp1248
Rp1249
(dp1250
g12
S'18'
p1251
sg27
(dp1252
g29
I1
sg11
I16
sg30
I1
sg31
I1
sg15
I17
sg16
I14
sg32
I16
ssbag19
(g20
g21
(dp1253
tp1254
Rp1255
(dp1256
g12
S'36'
p1257
sg27
(dp1258
g29
I1
sg11
I15
sg30
I1
sg31
I1
sg15
I15
sg16
I15
sg32
I15
ssbag19
(g20
g21
(dp1259
tp1260
Rp1261
(dp1262
g12
S'41'
p1263
sg27
(dp1264
g29
I1
sg11
I16
sg30
I1
sg31
I1
sg15
I15
sg16
I17
sg32
I13
ssbag19
(g20
g21
(dp1265
tp1266
Rp1267
(dp1268
g12
S'78'
p1269
sg27
(dp1270
g29
I1
sg11
I16
sg30
I1
sg31
I1
sg15
I15
sg16
I15
sg32
I15
ssbag19
(g20
g21
(dp1271
tp1272
Rp1273
(dp1274
g12
S'114'
p1275
sg27
(dp1276
g29
I1
sg11
I16
sg30
I1
sg31
I1
sg15
I16
sg16
I18
sg32
I16
ssbasg32
I91
sba(i__main__
PhysicalMachine
p1277
(dp1278
g11
I89
sg12
S'23'
p1279
sg14
I00
sg15
I91
sg16
I91
sg17
(lp1280
g19
(g20
g21
(dp1281
tp1282
Rp1283
(dp1284
g12
S'30'
p1285
sg27
(dp1286
g29
I1
sg11
I14
sg30
I1
sg31
I1
sg15
I17
sg16
I14
sg32
I15
ssbag19
(g20
g21
(dp1287
tp1288
Rp1289
(dp1290
g12
S'66'
p1291
sg27
(dp1292
g29
I1
sg11
I15
sg30
I1
sg31
I1
sg15
I15
sg16
I15
sg32
I15
ssbag19
(g20
g21
(dp1293
tp1294
Rp1295
(dp1296
g12
S'68'
p1297
sg27
(dp1298
g29
I1
sg11
I15
sg30
I1
sg31
I1
sg15
I13
sg16
I15
sg32
I16
ssbag19
(g20
g21
(dp1299
tp1300
Rp1301
(dp1302
g12
S'72'
p1303
sg27
(dp1304
g29
I1
sg11
I14
sg30
I1
sg31
I1
sg15
I15
sg16
I16
sg32
I15
ssbag19
(g20
g21
(dp1305
tp1306
Rp1307
(dp1308
g12
S'93'
p1309
sg27
(dp1310
g29
I1
sg11
I15
sg30
I1
sg31
I1
sg15
I16
sg16
I16
sg32
I15
ssbag19
(g20
g21
(dp1311
tp1312
Rp1313
(dp1314
g12
S'141'
p1315
sg27
(dp1316
g29
I1
sg11
I16
sg30
I1
sg31
I1
sg15
I15
sg16
I15
sg32
I15
ssbasg32
I91
sba(i__main__
PhysicalMachine
p1317
(dp1318
g11
I90
sg12
S'24'
p1319
sg14
I00
sg15
I95
sg16
I93
sg17
(lp1320
g19
(g20
g21
(dp1321
tp1322
Rp1323
(dp1324
g12
S'6'
p1325
sg27
(dp1326
g29
I1
sg11
I15
sg30
I1
sg31
I1
sg15
I15
sg16
I15
sg32
I16
ssbag19
(g20
g21
(dp1327
tp1328
Rp1329
(dp1330
g12
S'67'
p1331
sg27
(dp1332
g29
I1
sg11
I15
sg30
I1
sg31
I1
sg15
I16
sg16
I16
sg32
I12
ssbag19
(g20
g21
(dp1333
tp1334
Rp1335
(dp1336
g12
S'77'
p1337
sg27
(dp1338
g29
I1
sg11
I16
sg30
I1
sg31
I1
sg15
I16
sg16
I16
sg32
I16
ssbag19
(g20
g21
(dp1339
tp1340
Rp1341
(dp1342
g12
S'96'
p1343
sg27
(dp1344
g29
I1
sg11
I16
sg30
I1
sg31
I1
sg15
I16
sg16
I15
sg32
I13
ssbag19
(g20
g21
(dp1345
tp1346
Rp1347
(dp1348
g12
S'101'
p1349
sg27
(dp1350
g29
I1
sg11
I15
sg30
I1
sg31
I1
sg15
I16
sg16
I15
sg32
I16
ssbag19
(g20
g21
(dp1351
tp1352
Rp1353
(dp1354
g12
S'111'
p1355
sg27
(dp1356
g29
I1
sg11
I13
sg30
I1
sg31
I1
sg15
I16
sg16
I16
sg32
I14
ssbasg32
I87
sba(i__main__
PhysicalMachine
p1357
(dp1358
g11
I59
sg12
S'25'
p1359
sg14
I00
sg15
I59
sg16
I60
sg17
(lp1360
g19
(g20
g21
(dp1361
tp1362
Rp1363
(dp1364
g12
S'10'
p1365
sg27
(dp1366
g29
I1
sg11
I15
sg30
I1
sg31
I1
sg15
I15
sg16
I16
sg32
I15
ssbag19
(g20
g21
(dp1367
tp1368
Rp1369
(dp1370
g12
S'13'
p1371
sg27
(dp1372
g29
I1
sg11
I16
sg30
I1
sg31
I1
sg15
I17
sg16
I14
sg32
I15
ssbag19
(g20
g21
(dp1373
tp1374
Rp1375
(dp1376
g12
S'83'
p1377
sg27
(dp1378
g29
I1
sg11
I15
sg30
I1
sg31
I1
sg15
I13
sg16
I15
sg32
I14
ssbag19
(g20
g21
(dp1379
tp1380
Rp1381
(dp1382
g12
S'129'
p1383
sg27
(dp1384
g29
I1
sg11
I13
sg30
I1
sg31
I1
sg15
I14
sg16
I15
sg32
I15
ssbasg32
I59
sba(i__main__
PhysicalMachine
p1385
(dp1386
g11
I0
sg12
S'26'
p1387
sg14
I01
sg15
I0
sg16
I0
sg17
(lp1388
sg32
I0
sba(i__main__
PhysicalMachine
p1389
(dp1390
g11
I0
sg12
S'27'
p1391
sg14
I01
sg15
I0
sg16
I0
sg17
(lp1392
sg32
I0
sba(i__main__
PhysicalMachine
p1393
(dp1394
g11
I0
sg12
S'28'
p1395
sg14
I01
sg15
I0
sg16
I0
sg17
(lp1396
sg32
I0
sba(i__main__
PhysicalMachine
p1397
(dp1398
g11
I0
sg12
S'29'
p1399
sg14
I01
sg15
I0
sg16
I0
sg17
(lp1400
sg32
I0
sba(i__main__
PhysicalMachine
p1401
(dp1402
g11
I0
sg12
S'30'
p1403
sg14
I01
sg15
I0
sg16
I0
sg17
(lp1404
sg32
I0
sba(i__main__
PhysicalMachine
p1405
(dp1406
g11
I0
sg12
S'31'
p1407
sg14
I01
sg15
I0
sg16
I0
sg17
(lp1408
sg32
I0
sba(i__main__
PhysicalMachine
p1409
(dp1410
g11
I0
sg12
S'32'
p1411
sg14
I01
sg15
I0
sg16
I0
sg17
(lp1412
sg32
I0
sba(i__main__
PhysicalMachine
p1413
(dp1414
g11
I0
sg12
S'33'
p1415
sg14
I01
sg15
I0
sg16
I0
sg17
(lp1416
sg32
I0
sba(i__main__
PhysicalMachine
p1417
(dp1418
g11
I0
sg12
S'34'
p1419
sg14
I01
sg15
I0
sg16
I0
sg17
(lp1420
sg32
I0
sba(i__main__
PhysicalMachine
p1421
(dp1422
g11
I0
sg12
S'35'
p1423
sg14
I01
sg15
I0
sg16
I0
sg17
(lp1424
sg32
I0
sba(i__main__
PhysicalMachine
p1425
(dp1426
g11
I0
sg12
S'36'
p1427
sg14
I01
sg15
I0
sg16
I0
sg17
(lp1428
sg32
I0
sba(i__main__
PhysicalMachine
p1429
(dp1430
g11
I0
sg12
S'37'
p1431
sg14
I01
sg15
I0
sg16
I0
sg17
(lp1432
sg32
I0
sba(i__main__
PhysicalMachine
p1433
(dp1434
g11
I0
sg12
S'38'
p1435
sg14
I01
sg15
I0
sg16
I0
sg17
(lp1436
sg32
I0
sba(i__main__
PhysicalMachine
p1437
(dp1438
g11
I0
sg12
S'39'
p1439
sg14
I01
sg15
I0
sg16
I0
sg17
(lp1440
sg32
I0
sba(i__main__
PhysicalMachine
p1441
(dp1442
g11
I0
sg12
S'40'
p1443
sg14
I01
sg15
I0
sg16
I0
sg17
(lp1444
sg32
I0
sba(i__main__
PhysicalMachine
p1445
(dp1446
g11
I0
sg12
S'41'
p1447
sg14
I01
sg15
I0
sg16
I0
sg17
(lp1448
sg32
I0
sba(i__main__
PhysicalMachine
p1449
(dp1450
g11
I0
sg12
S'42'
p1451
sg14
I01
sg15
I0
sg16
I0
sg17
(lp1452
sg32
I0
sba(i__main__
PhysicalMachine
p1453
(dp1454
g11
I0
sg12
S'43'
p1455
sg14
I01
sg15
I0
sg16
I0
sg17
(lp1456
sg32
I0
sba(i__main__
PhysicalMachine
p1457
(dp1458
g11
I0
sg12
S'44'
p1459
sg14
I01
sg15
I0
sg16
I0
sg17
(lp1460
sg32
I0
sba(i__main__
PhysicalMachine
p1461
(dp1462
g11
I0
sg12
S'45'
p1463
sg14
I01
sg15
I0
sg16
I0
sg17
(lp1464
sg32
I0
sba(i__main__
PhysicalMachine
p1465
(dp1466
g11
I0
sg12
S'46'
p1467
sg14
I01
sg15
I0
sg16
I0
sg17
(lp1468
sg32
I0
sba(i__main__
PhysicalMachine
p1469
(dp1470
g11
I0
sg12
S'47'
p1471
sg14
I01
sg15
I0
sg16
I0
sg17
(lp1472
sg32
I0
sba(i__main__
PhysicalMachine
p1473
(dp1474
g11
I0
sg12
S'48'
p1475
sg14
I01
sg15
I0
sg16
I0
sg17
(lp1476
sg32
I0
sba(i__main__
PhysicalMachine
p1477
(dp1478
g11
I0
sg12
S'49'
p1479
sg14
I01
sg15
I0
sg16
I0
sg17
(lp1480
sg32
I0
sba(i__main__
PhysicalMachine
p1481
(dp1482
g11
I0
sg12
S'50'
p1483
sg14
I01
sg15
I0
sg16
I0
sg17
(lp1484
sg32
I0
sba(i__main__
PhysicalMachine
p1485
(dp1486
g11
I0
sg12
S'51'
p1487
sg14
I01
sg15
I0
sg16
I0
sg17
(lp1488
sg32
I0
sba(i__main__
PhysicalMachine
p1489
(dp1490
g11
I0
sg12
S'52'
p1491
sg14
I01
sg15
I0
sg16
I0
sg17
(lp1492
sg32
I0
sba(i__main__
PhysicalMachine
p1493
(dp1494
g11
I0
sg12
S'53'
p1495
sg14
I01
sg15
I0
sg16
I0
sg17
(lp1496
sg32
I0
sba(i__main__
PhysicalMachine
p1497
(dp1498
g11
I0
sg12
S'54'
p1499
sg14
I01
sg15
I0
sg16
I0
sg17
(lp1500
sg32
I0
sba(i__main__
PhysicalMachine
p1501
(dp1502
g11
I0
sg12
S'55'
p1503
sg14
I01
sg15
I0
sg16
I0
sg17
(lp1504
sg32
I0
sba(i__main__
PhysicalMachine
p1505
(dp1506
g11
I0
sg12
S'56'
p1507
sg14
I01
sg15
I0
sg16
I0
sg17
(lp1508
sg32
I0
sba(i__main__
PhysicalMachine
p1509
(dp1510
g11
I0
sg12
S'57'
p1511
sg14
I01
sg15
I0
sg16
I0
sg17
(lp1512
sg32
I0
sba(i__main__
PhysicalMachine
p1513
(dp1514
g11
I0
sg12
S'58'
p1515
sg14
I01
sg15
I0
sg16
I0
sg17
(lp1516
sg32
I0
sba(i__main__
PhysicalMachine
p1517
(dp1518
g11
I0
sg12
S'59'
p1519
sg14
I01
sg15
I0
sg16
I0
sg17
(lp1520
sg32
I0
sba(i__main__
PhysicalMachine
p1521
(dp1522
g11
I0
sg12
S'60'
p1523
sg14
I01
sg15
I0
sg16
I0
sg17
(lp1524
sg32
I0
sba(i__main__
PhysicalMachine
p1525
(dp1526
g11
I0
sg12
S'61'
p1527
sg14
I01
sg15
I0
sg16
I0
sg17
(lp1528
sg32
I0
sba(i__main__
PhysicalMachine
p1529
(dp1530
g11
I0
sg12
S'62'
p1531
sg14
I01
sg15
I0
sg16
I0
sg17
(lp1532
sg32
I0
sba(i__main__
PhysicalMachine
p1533
(dp1534
g11
I0
sg12
S'63'
p1535
sg14
I01
sg15
I0
sg16
I0
sg17
(lp1536
sg32
I0
sba(i__main__
PhysicalMachine
p1537
(dp1538
g11
I0
sg12
S'64'
p1539
sg14
I01
sg15
I0
sg16
I0
sg17
(lp1540
sg32
I0
sba(i__main__
PhysicalMachine
p1541
(dp1542
g11
I0
sg12
S'65'
p1543
sg14
I01
sg15
I0
sg16
I0
sg17
(lp1544
sg32
I0
sba(i__main__
PhysicalMachine
p1545
(dp1546
g11
I0
sg12
S'66'
p1547
sg14
I01
sg15
I0
sg16
I0
sg17
(lp1548
sg32
I0
sba(i__main__
PhysicalMachine
p1549
(dp1550
g11
I0
sg12
S'67'
p1551
sg14
I01
sg15
I0
sg16
I0
sg17
(lp1552
sg32
I0
sba(i__main__
PhysicalMachine
p1553
(dp1554
g11
I0
sg12
S'68'
p1555
sg14
I01
sg15
I0
sg16
I0
sg17
(lp1556
sg32
I0
sba(i__main__
PhysicalMachine
p1557
(dp1558
g11
I0
sg12
S'69'
p1559
sg14
I01
sg15
I0
sg16
I0
sg17
(lp1560
sg32
I0
sba(i__main__
PhysicalMachine
p1561
(dp1562
g11
I0
sg12
S'70'
p1563
sg14
I01
sg15
I0
sg16
I0
sg17
(lp1564
sg32
I0
sba(i__main__
PhysicalMachine
p1565
(dp1566
g11
I0
sg12
S'71'
p1567
sg14
I01
sg15
I0
sg16
I0
sg17
(lp1568
sg32
I0
sbasbsg7
(lp1569
sS'itemstuples'
p1570
(lp1571
(I0
(dp1572
S'name'
p1573
S'item 0'
p1574
sg29
I1
sg11
I15
sg30
I1
sg15
I15
sg16
I16
sg32
I15
stp1575
a(I1
(dp1576
g1573
S'item 1'
p1577
sg29
I1
sg11
I16
sg30
I1
sg15
I17
sg16
I14
sg32
I15
stp1578
a(I2
(dp1579
g1573
S'item 2'
p1580
sg29
I1
sg11
I15
sg30
I1
sg15
I13
sg16
I15
sg32
I14
stp1581
a(I3
(dp1582
g1573
S'item 3'
p1583
sg29
I1
sg11
I13
sg30
I1
sg15
I14
sg16
I15
sg32
I15
stp1584
asS'vmm'
p1585
(i__main__
VMManager
p1586
(dp1587
g7
g1569
sbsS'constraints'
p1588
NsbsS'elapsed_time'
p1589
F0.5915780067443848
sS'virtual_machines_placed'
p1590
I16
sS'manager'
p1591
(i__main__
Manager
p1592
(dp1593
g1585
(i__main__
VMManager
p1594
(dp1595
g7
(lp1596
sbsg4
(lp1597
sS'total_vm'
p1598
I16
sg410
g411
sS'total_pm'
p1599
I72
sg413
g5
sbsS'end_time'
p1600
F1383314034.732922
sS'virtual_mahines_count'
p1601
I16
sS'virtual_machines_unplaced'
p1602
I0
sS'physical_mahines_count'
p1603
I72
sa(dp1604
g2
I66
sg3
I0
sg4
(i__main__
PMManager
p1605
(dp1606
g7
(lp1607
(i__main__
PhysicalMachine
p1608
(dp1609
g11
I88
sg12
S'0'
p1610
sg14
I00
sg15
I86
sg16
I90
sg17
(lp1611
g19
(g20
g21
(dp1612
tp1613
Rp1614
(dp1615
g12
S'14'
p1616
sg27
(dp1617
g29
I1
sg11
I14
sg30
I1
sg31
I1
sg15
I15
sg16
I15
sg32
I17
ssbag19
(g20
g21
(dp1618
tp1619
Rp1620
(dp1621
g12
S'17'
p1622
sg27
(dp1623
g29
I1
sg11
I16
sg30
I1
sg31
I1
sg15
I15
sg16
I14
sg32
I14
ssbag19
(g20
g21
(dp1624
tp1625
Rp1626
(dp1627
g12
S'23'
p1628
sg27
(dp1629
g29
I1
sg11
I16
sg30
I1
sg31
I1
sg15
I14
sg16
I15
sg32
I15
ssbag19
(g20
g21
(dp1630
tp1631
Rp1632
(dp1633
g12
S'24'
p1634
sg27
(dp1635
g29
I1
sg11
I15
sg30
I1
sg31
I1
sg15
I13
sg16
I16
sg32
I16
ssbag19
(g20
g21
(dp1636
tp1637
Rp1638
(dp1639
g12
S'28'
p1640
sg27
(dp1641
g29
I1
sg11
I15
sg30
I1
sg31
I1
sg15
I15
sg16
I15
sg32
I15
ssbag19
(g20
g21
(dp1642
tp1643
Rp1644
(dp1645
g12
S'31'
p1646
sg27
(dp1647
g29
I1
sg11
I12
sg30
I1
sg31
I1
sg15
I14
sg16
I15
sg32
I17
ssbasg32
I94
sba(i__main__
PhysicalMachine
p1648
(dp1649
g11
I93
sg12
S'1'
p1650
sg14
I00
sg15
I91
sg16
I91
sg17
(lp1651
g19
(g20
g21
(dp1652
tp1653
Rp1654
(dp1655
g12
S'5'
p1656
sg27
(dp1657
g29
I1
sg11
I16
sg30
I1
sg31
I1
sg15
I16
sg16
I16
sg32
I16
ssbag19
(g20
g21
(dp1658
tp1659
Rp1660
(dp1661
g12
S'6'
p1662
sg27
(dp1663
g29
I1
sg11
I15
sg30
I1
sg31
I1
sg15
I15
sg16
I15
sg32
I16
ssbag19
(g20
g21
(dp1664
tp1665
Rp1666
(dp1667
g12
S'9'
p1668
sg27
(dp1669
g29
I1
sg11
I14
sg30
I1
sg31
I1
sg15
I16
sg16
I15
sg32
I16
ssbag19
(g20
g21
(dp1670
tp1671
Rp1672
(dp1673
g12
S'15'
p1674
sg27
(dp1675
g29
I1
sg11
I16
sg30
I1
sg31
I1
sg15
I13
sg16
I15
sg32
I15
ssbag19
(g20
g21
(dp1676
tp1677
Rp1678
(dp1679
g12
S'20'
p1680
sg27
(dp1681
g29
I1
sg11
I16
sg30
I1
sg31
I1
sg15
I15
sg16
I16
sg32
I16
ssbag19
(g20
g21
(dp1682
tp1683
Rp1684
(dp1685
g12
S'25'
p1686
sg27
(dp1687
g29
I1
sg11
I16
sg30
I1
sg31
I1
sg15
I16
sg16
I14
sg32
I15
ssbasg32
I94
sba(i__main__
PhysicalMachine
p1688
(dp1689
g11
I92
sg12
S'2'
p1690
sg14
I00
sg15
I89
sg16
I88
sg17
(lp1691
g19
(g20
g21
(dp1692
tp1693
Rp1694
(dp1695
g12
S'0'
p1696
sg27
(dp1697
g29
I1
sg11
I16
sg30
I1
sg31
I1
sg15
I15
sg16
I15
sg32
I14
ssbag19
(g20
g21
(dp1698
tp1699
Rp1700
(dp1701
g12
S'4'
p1702
sg27
(dp1703
g29
I1
sg11
I15
sg30
I1
sg31
I1
sg15
I14
sg16
I13
sg32
I16
ssbag19
(g20
g21
(dp1704
tp1705
Rp1706
(dp1707
g12
S'11'
p1708
sg27
(dp1709
g29
I1
sg11
I15
sg30
I1
sg31
I1
sg15
I14
sg16
I13
sg32
I15
ssbag19
(g20
g21
(dp1710
tp1711
Rp1712
(dp1713
g12
S'16'
p1714
sg27
(dp1715
g29
I1
sg11
I15
sg30
I1
sg31
I1
sg15
I15
sg16
I15
sg32
I14
ssbag19
(g20
g21
(dp1716
tp1717
Rp1718
(dp1719
g12
S'19'
p1720
sg27
(dp1721
g29
I1
sg11
I15
sg30
I1
sg31
I1
sg15
I16
sg16
I16
sg32
I15
ssbag19
(g20
g21
(dp1722
tp1723
Rp1724
(dp1725
g12
S'21'
p1726
sg27
(dp1727
g29
I1
sg11
I16
sg30
I1
sg31
I1
sg15
I15
sg16
I16
sg32
I15
ssbasg32
I89
sba(i__main__
PhysicalMachine
p1728
(dp1729
g11
I91
sg12
S'3'
p1730
sg14
I00
sg15
I94
sg16
I91
sg17
(lp1731
g19
(g20
g21
(dp1732
tp1733
Rp1734
(dp1735
g12
S'7'
p1736
sg27
(dp1737
g29
I1
sg11
I15
sg30
I1
sg31
I1
sg15
I14
sg16
I16
sg32
I15
ssbag19
(g20
g21
(dp1738
tp1739
Rp1740
(dp1741
g12
S'8'
p1742
sg27
(dp1743
g29
I1
sg11
I15
sg30
I1
sg31
I1
sg15
I16
sg16
I16
sg32
I15
ssbag19
(g20
g21
(dp1744
tp1745
Rp1746
(dp1747
g12
S'12'
p1748
sg27
(dp1749
g29
I1
sg11
I16
sg30
I1
sg31
I1
sg15
I14
sg16
I16
sg32
I16
ssbag19
(g20
g21
(dp1750
tp1751
Rp1752
(dp1753
g12
S'18'
p1754
sg27
(dp1755
g29
I1
sg11
I16
sg30
I1
sg31
I1
sg15
I17
sg16
I14
sg32
I16
ssbag19
(g20
g21
(dp1756
tp1757
Rp1758
(dp1759
g12
S'27'
p1760
sg27
(dp1761
g29
I1
sg11
I15
sg30
I1
sg31
I1
sg15
I16
sg16
I15
sg32
I14
ssbag19
(g20
g21
(dp1762
tp1763
Rp1764
(dp1765
g12
S'30'
p1766
sg27
(dp1767
g29
I1
sg11
I14
sg30
I1
sg31
I1
sg15
I17
sg16
I14
sg32
I15
ssbasg32
I91
sba(i__main__
PhysicalMachine
p1768
(dp1769
g11
I89
sg12
S'4'
p1770
sg14
I00
sg15
I95
sg16
I90
sg17
(lp1771
g19
(g20
g21
(dp1772
tp1773
Rp1774
(dp1775
g12
S'1'
p1776
sg27
(dp1777
g29
I1
sg11
I16
sg30
I1
sg31
I1
sg15
I16
sg16
I14
sg32
I15
ssbag19
(g20
g21
(dp1778
tp1779
Rp1780
(dp1781
g12
S'3'
p1782
sg27
(dp1783
g29
I1
sg11
I14
sg30
I1
sg31
I1
sg15
I16
sg16
I15
sg32
I16
ssbag19
(g20
g21
(dp1784
tp1785
Rp1786
(dp1787
g12
S'10'
p1788
sg27
(dp1789
g29
I1
sg11
I15
sg30
I1
sg31
I1
sg15
I15
sg16
I16
sg32
I15
ssbag19
(g20
g21
(dp1790
tp1791
Rp1792
(dp1793
g12
S'13'
p1794
sg27
(dp1795
g29
I1
sg11
I16
sg30
I1
sg31
I1
sg15
I17
sg16
I14
sg32
I15
ssbag19
(g20
g21
(dp1796
tp1797
Rp1798
(dp1799
g12
S'22'
p1800
sg27
(dp1801
g29
I1
sg11
I13
sg30
I1
sg31
I1
sg15
I16
sg16
I15
sg32
I15
ssbag19
(g20
g21
(dp1802
tp1803
Rp1804
(dp1805
g12
S'26'
p1806
sg27
(dp1807
g29
I1
sg11
I15
sg30
I1
sg31
I1
sg15
I15
sg16
I16
sg32
I16
ssbasg32
I92
sba(i__main__
PhysicalMachine
p1808
(dp1809
g11
I30
sg12
S'5'
p1810
sg14
I00
sg15
I32
sg16
I31
sg17
(lp1811
g19
(g20
g21
(dp1812
tp1813
Rp1814
(dp1815
g12
S'2'
p1816
sg27
(dp1817
g29
I1
sg11
I15
sg30
I1
sg31
I1
sg15
I16
sg16
I15
sg32
I16
ssbag19
(g20
g21
(dp1818
tp1819
Rp1820
(dp1821
g12
S'29'
p1822
sg27
(dp1823
g29
I1
sg11
I15
sg30
I1
sg31
I1
sg15
I16
sg16
I16
sg32
I15
ssbasg32
I31
sba(i__main__
PhysicalMachine
p1824
(dp1825
g11
I0
sg12
S'6'
p1826
sg14
I01
sg15
I0
sg16
I0
sg17
(lp1827
sg32
I0
sba(i__main__
PhysicalMachine
p1828
(dp1829
g11
I0
sg12
S'7'
p1830
sg14
I01
sg15
I0
sg16
I0
sg17
(lp1831
sg32
I0
sba(i__main__
PhysicalMachine
p1832
(dp1833
g11
I0
sg12
S'8'
p1834
sg14
I01
sg15
I0
sg16
I0
sg17
(lp1835
sg32
I0
sba(i__main__
PhysicalMachine
p1836
(dp1837
g11
I0
sg12
S'9'
p1838
sg14
I01
sg15
I0
sg16
I0
sg17
(lp1839
sg32
I0
sba(i__main__
PhysicalMachine
p1840
(dp1841
g11
I0
sg12
S'10'
p1842
sg14
I01
sg15
I0
sg16
I0
sg17
(lp1843
sg32
I0
sba(i__main__
PhysicalMachine
p1844
(dp1845
g11
I0
sg12
S'11'
p1846
sg14
I01
sg15
I0
sg16
I0
sg17
(lp1847
sg32
I0
sba(i__main__
PhysicalMachine
p1848
(dp1849
g11
I0
sg12
S'12'
p1850
sg14
I01
sg15
I0
sg16
I0
sg17
(lp1851
sg32
I0
sba(i__main__
PhysicalMachine
p1852
(dp1853
g11
I0
sg12
S'13'
p1854
sg14
I01
sg15
I0
sg16
I0
sg17
(lp1855
sg32
I0
sba(i__main__
PhysicalMachine
p1856
(dp1857
g11
I0
sg12
S'14'
p1858
sg14
I01
sg15
I0
sg16
I0
sg17
(lp1859
sg32
I0
sba(i__main__
PhysicalMachine
p1860
(dp1861
g11
I0
sg12
S'15'
p1862
sg14
I01
sg15
I0
sg16
I0
sg17
(lp1863
sg32
I0
sba(i__main__
PhysicalMachine
p1864
(dp1865
g11
I0
sg12
S'16'
p1866
sg14
I01
sg15
I0
sg16
I0
sg17
(lp1867
sg32
I0
sba(i__main__
PhysicalMachine
p1868
(dp1869
g11
I0
sg12
S'17'
p1870
sg14
I01
sg15
I0
sg16
I0
sg17
(lp1871
sg32
I0
sba(i__main__
PhysicalMachine
p1872
(dp1873
g11
I0
sg12
S'18'
p1874
sg14
I01
sg15
I0
sg16
I0
sg17
(lp1875
sg32
I0
sba(i__main__
PhysicalMachine
p1876
(dp1877
g11
I0
sg12
S'19'
p1878
sg14
I01
sg15
I0
sg16
I0
sg17
(lp1879
sg32
I0
sba(i__main__
PhysicalMachine
p1880
(dp1881
g11
I0
sg12
S'20'
p1882
sg14
I01
sg15
I0
sg16
I0
sg17
(lp1883
sg32
I0
sba(i__main__
PhysicalMachine
p1884
(dp1885
g11
I0
sg12
S'21'
p1886
sg14
I01
sg15
I0
sg16
I0
sg17
(lp1887
sg32
I0
sba(i__main__
PhysicalMachine
p1888
(dp1889
g11
I0
sg12
S'22'
p1890
sg14
I01
sg15
I0
sg16
I0
sg17
(lp1891
sg32
I0
sba(i__main__
PhysicalMachine
p1892
(dp1893
g11
I0
sg12
S'23'
p1894
sg14
I01
sg15
I0
sg16
I0
sg17
(lp1895
sg32
I0
sba(i__main__
PhysicalMachine
p1896
(dp1897
g11
I0
sg12
S'24'
p1898
sg14
I01
sg15
I0
sg16
I0
sg17
(lp1899
sg32
I0
sba(i__main__
PhysicalMachine
p1900
(dp1901
g11
I0
sg12
S'25'
p1902
sg14
I01
sg15
I0
sg16
I0
sg17
(lp1903
sg32
I0
sba(i__main__
PhysicalMachine
p1904
(dp1905
g11
I0
sg12
S'26'
p1906
sg14
I01
sg15
I0
sg16
I0
sg17
(lp1907
sg32
I0
sba(i__main__
PhysicalMachine
p1908
(dp1909
g11
I0
sg12
S'27'
p1910
sg14
I01
sg15
I0
sg16
I0
sg17
(lp1911
sg32
I0
sba(i__main__
PhysicalMachine
p1912
(dp1913
g11
I0
sg12
S'28'
p1914
sg14
I01
sg15
I0
sg16
I0
sg17
(lp1915
sg32
I0
sba(i__main__
PhysicalMachine
p1916
(dp1917
g11
I0
sg12
S'29'
p1918
sg14
I01
sg15
I0
sg16
I0
sg17
(lp1919
sg32
I0
sba(i__main__
PhysicalMachine
p1920
(dp1921
g11
I0
sg12
S'30'
p1922
sg14
I01
sg15
I0
sg16
I0
sg17
(lp1923
sg32
I0
sba(i__main__
PhysicalMachine
p1924
(dp1925
g11
I0
sg12
S'31'
p1926
sg14
I01
sg15
I0
sg16
I0
sg17
(lp1927
sg32
I0
sba(i__main__
PhysicalMachine
p1928
(dp1929
g11
I0
sg12
S'32'
p1930
sg14
I01
sg15
I0
sg16
I0
sg17
(lp1931
sg32
I0
sba(i__main__
PhysicalMachine
p1932
(dp1933
g11
I0
sg12
S'33'
p1934
sg14
I01
sg15
I0
sg16
I0
sg17
(lp1935
sg32
I0
sba(i__main__
PhysicalMachine
p1936
(dp1937
g11
I0
sg12
S'34'
p1938
sg14
I01
sg15
I0
sg16
I0
sg17
(lp1939
sg32
I0
sba(i__main__
PhysicalMachine
p1940
(dp1941
g11
I0
sg12
S'35'
p1942
sg14
I01
sg15
I0
sg16
I0
sg17
(lp1943
sg32
I0
sba(i__main__
PhysicalMachine
p1944
(dp1945
g11
I0
sg12
S'36'
p1946
sg14
I01
sg15
I0
sg16
I0
sg17
(lp1947
sg32
I0
sba(i__main__
PhysicalMachine
p1948
(dp1949
g11
I0
sg12
S'37'
p1950
sg14
I01
sg15
I0
sg16
I0
sg17
(lp1951
sg32
I0
sba(i__main__
PhysicalMachine
p1952
(dp1953
g11
I0
sg12
S'38'
p1954
sg14
I01
sg15
I0
sg16
I0
sg17
(lp1955
sg32
I0
sba(i__main__
PhysicalMachine
p1956
(dp1957
g11
I0
sg12
S'39'
p1958
sg14
I01
sg15
I0
sg16
I0
sg17
(lp1959
sg32
I0
sba(i__main__
PhysicalMachine
p1960
(dp1961
g11
I0
sg12
S'40'
p1962
sg14
I01
sg15
I0
sg16
I0
sg17
(lp1963
sg32
I0
sba(i__main__
PhysicalMachine
p1964
(dp1965
g11
I0
sg12
S'41'
p1966
sg14
I01
sg15
I0
sg16
I0
sg17
(lp1967
sg32
I0
sba(i__main__
PhysicalMachine
p1968
(dp1969
g11
I0
sg12
S'42'
p1970
sg14
I01
sg15
I0
sg16
I0
sg17
(lp1971
sg32
I0
sba(i__main__
PhysicalMachine
p1972
(dp1973
g11
I0
sg12
S'43'
p1974
sg14
I01
sg15
I0
sg16
I0
sg17
(lp1975
sg32
I0
sba(i__main__
PhysicalMachine
p1976
(dp1977
g11
I0
sg12
S'44'
p1978
sg14
I01
sg15
I0
sg16
I0
sg17
(lp1979
sg32
I0
sba(i__main__
PhysicalMachine
p1980
(dp1981
g11
I0
sg12
S'45'
p1982
sg14
I01
sg15
I0
sg16
I0
sg17
(lp1983
sg32
I0
sba(i__main__
PhysicalMachine
p1984
(dp1985
g11
I0
sg12
S'46'
p1986
sg14
I01
sg15
I0
sg16
I0
sg17
(lp1987
sg32
I0
sba(i__main__
PhysicalMachine
p1988
(dp1989
g11
I0
sg12
S'47'
p1990
sg14
I01
sg15
I0
sg16
I0
sg17
(lp1991
sg32
I0
sba(i__main__
PhysicalMachine
p1992
(dp1993
g11
I0
sg12
S'48'
p1994
sg14
I01
sg15
I0
sg16
I0
sg17
(lp1995
sg32
I0
sba(i__main__
PhysicalMachine
p1996
(dp1997
g11
I0
sg12
S'49'
p1998
sg14
I01
sg15
I0
sg16
I0
sg17
(lp1999
sg32
I0
sba(i__main__
PhysicalMachine
p2000
(dp2001
g11
I0
sg12
S'50'
p2002
sg14
I01
sg15
I0
sg16
I0
sg17
(lp2003
sg32
I0
sba(i__main__
PhysicalMachine
p2004
(dp2005
g11
I0
sg12
S'51'
p2006
sg14
I01
sg15
I0
sg16
I0
sg17
(lp2007
sg32
I0
sba(i__main__
PhysicalMachine
p2008
(dp2009
g11
I0
sg12
S'52'
p2010
sg14
I01
sg15
I0
sg16
I0
sg17
(lp2011
sg32
I0
sba(i__main__
PhysicalMachine
p2012
(dp2013
g11
I0
sg12
S'53'
p2014
sg14
I01
sg15
I0
sg16
I0
sg17
(lp2015
sg32
I0
sba(i__main__
PhysicalMachine
p2016
(dp2017
g11
I0
sg12
S'54'
p2018
sg14
I01
sg15
I0
sg16
I0
sg17
(lp2019
sg32
I0
sba(i__main__
PhysicalMachine
p2020
(dp2021
g11
I0
sg12
S'55'
p2022
sg14
I01
sg15
I0
sg16
I0
sg17
(lp2023
sg32
I0
sba(i__main__
PhysicalMachine
p2024
(dp2025
g11
I0
sg12
S'56'
p2026
sg14
I01
sg15
I0
sg16
I0
sg17
(lp2027
sg32
I0
sba(i__main__
PhysicalMachine
p2028
(dp2029
g11
I0
sg12
S'57'
p2030
sg14
I01
sg15
I0
sg16
I0
sg17
(lp2031
sg32
I0
sba(i__main__
PhysicalMachine
p2032
(dp2033
g11
I0
sg12
S'58'
p2034
sg14
I01
sg15
I0
sg16
I0
sg17
(lp2035
sg32
I0
sba(i__main__
PhysicalMachine
p2036
(dp2037
g11
I0
sg12
S'59'
p2038
sg14
I01
sg15
I0
sg16
I0
sg17
(lp2039
sg32
I0
sba(i__main__
PhysicalMachine
p2040
(dp2041
g11
I0
sg12
S'60'
p2042
sg14
I01
sg15
I0
sg16
I0
sg17
(lp2043
sg32
I0
sba(i__main__
PhysicalMachine
p2044
(dp2045
g11
I0
sg12
S'61'
p2046
sg14
I01
sg15
I0
sg16
I0
sg17
(lp2047
sg32
I0
sba(i__main__
PhysicalMachine
p2048
(dp2049
g11
I0
sg12
S'62'
p2050
sg14
I01
sg15
I0
sg16
I0
sg17
(lp2051
sg32
I0
sba(i__main__
PhysicalMachine
p2052
(dp2053
g11
I0
sg12
S'63'
p2054
sg14
I01
sg15
I0
sg16
I0
sg17
(lp2055
sg32
I0
sba(i__main__
PhysicalMachine
p2056
(dp2057
g11
I0
sg12
S'64'
p2058
sg14
I01
sg15
I0
sg16
I0
sg17
(lp2059
sg32
I0
sba(i__main__
PhysicalMachine
p2060
(dp2061
g11
I0
sg12
S'65'
p2062
sg14
I01
sg15
I0
sg16
I0
sg17
(lp2063
sg32
I0
sba(i__main__
PhysicalMachine
p2064
(dp2065
g11
I0
sg12
S'66'
p2066
sg14
I01
sg15
I0
sg16
I0
sg17
(lp2067
sg32
I0
sba(i__main__
PhysicalMachine
p2068
(dp2069
g11
I0
sg12
S'67'
p2070
sg14
I01
sg15
I0
sg16
I0
sg17
(lp2071
sg32
I0
sba(i__main__
PhysicalMachine
p2072
(dp2073
g11
I0
sg12
S'68'
p2074
sg14
I01
sg15
I0
sg16
I0
sg17
(lp2075
sg32
I0
sba(i__main__
PhysicalMachine
p2076
(dp2077
g11
I0
sg12
S'69'
p2078
sg14
I01
sg15
I0
sg16
I0
sg17
(lp2079
sg32
I0
sba(i__main__
PhysicalMachine
p2080
(dp2081
g11
I0
sg12
S'70'
p2082
sg14
I01
sg15
I0
sg16
I0
sg17
(lp2083
sg32
I0
sba(i__main__
PhysicalMachine
p2084
(dp2085
g11
I0
sg12
S'71'
p2086
sg14
I01
sg15
I0
sg16
I0
sg17
(lp2087
sg32
I0
sbasbsg407
F1681.76
sg408
F1383314034.732945
sg409
I6
sg410
g411
sg1589
F1.3872871398925781
sg1590
I32
sg1591
(i__main__
Manager
p2088
(dp2089
g1585
(i__main__
VMManager
p2090
(dp2091
g7
(lp2092
sbsg4
(lp2093
sg1598
I32
sg410
g411
sg1599
I72
sg413
g1605
sbsg1600
F1383314036.120232
sg1601
I32
sg1602
I0
sg1603
I72
sa(dp2094
g2
I64
sg3
I0
sg4
(i__main__
PMManager
p2095
(dp2096
g7
(lp2097
(i__main__
PhysicalMachine
p2098
(dp2099
g11
I89
sg12
S'0'
p2100
sg14
I00
sg15
I92
sg16
I87
sg17
(lp2101
g19
(g20
g21
(dp2102
tp2103
Rp2104
(dp2105
g12
S'4'
p2106
sg27
(dp2107
g29
I1
sg11
I15
sg30
I1
sg31
I1
sg15
I14
sg16
I13
sg32
I16
ssbag19
(g20
g21
(dp2108
tp2109
Rp2110
(dp2111
g12
S'13'
p2112
sg27
(dp2113
g29
I1
sg11
I16
sg30
I1
sg31
I1
sg15
I17
sg16
I14
sg32
I15
ssbag19
(g20
g21
(dp2114
tp2115
Rp2116
(dp2117
g12
S'17'
p2118
sg27
(dp2119
g29
I1
sg11
I16
sg30
I1
sg31
I1
sg15
I15
sg16
I14
sg32
I14
ssbag19
(g20
g21
(dp2120
tp2121
Rp2122
(dp2123
g12
S'22'
p2124
sg27
(dp2125
g29
I1
sg11
I13
sg30
I1
sg31
I1
sg15
I16
sg16
I15
sg32
I15
ssbag19
(g20
g21
(dp2126
tp2127
Rp2128
(dp2129
g12
S'32'
p2130
sg27
(dp2131
g29
I1
sg11
I15
sg30
I1
sg31
I1
sg15
I15
sg16
I17
sg32
I15
ssbag19
(g20
g21
(dp2132
tp2133
Rp2134
(dp2135
g12
S'35'
p2136
sg27
(dp2137
g29
I1
sg11
I14
sg30
I1
sg31
I1
sg15
I15
sg16
I14
sg32
I17
ssbasg32
I92
sba(i__main__
PhysicalMachine
p2138
(dp2139
g11
I93
sg12
S'1'
p2140
sg14
I00
sg15
I89
sg16
I94
sg17
(lp2141
g19
(g20
g21
(dp2142
tp2143
Rp2144
(dp2145
g12
S'3'
p2146
sg27
(dp2147
g29
I1
sg11
I14
sg30
I1
sg31
I1
sg15
I16
sg16
I15
sg32
I16
ssbag19
(g20
g21
(dp2148
tp2149
Rp2150
(dp2151
g12
S'23'
p2152
sg27
(dp2153
g29
I1
sg11
I16
sg30
I1
sg31
I1
sg15
I14
sg16
I15
sg32
I15
ssbag19
(g20
g21
(dp2154
tp2155
Rp2156
(dp2157
g12
S'28'
p2158
sg27
(dp2159
g29
I1
sg11
I15
sg30
I1
sg31
I1
sg15
I15
sg16
I15
sg32
I15
ssbag19
(g20
g21
(dp2160
tp2161
Rp2162
(dp2163
g12
S'37'
p2164
sg27
(dp2165
g29
I1
sg11
I15
sg30
I1
sg31
I1
sg15
I17
sg16
I17
sg32
I15
ssbag19
(g20
g21
(dp2166
tp2167
Rp2168
(dp2169
g12
S'39'
p2170
sg27
(dp2171
g29
I1
sg11
I16
sg30
I1
sg31
I1
sg15
I14
sg16
I16
sg32
I13
ssbag19
(g20
g21
(dp2172
tp2173
Rp2174
(dp2175
g12
S'47'
p2176
sg27
(dp2177
g29
I1
sg11
I17
sg30
I1
sg31
I1
sg15
I13
sg16
I16
sg32
I16
ssbasg32
I90
sba(i__main__
PhysicalMachine
p2178
(dp2179
g11
I92
sg12
S'2'
p2180
sg14
I00
sg15
I91
sg16
I91
sg17
(lp2181
g19
(g20
g21
(dp2182
tp2183
Rp2184
(dp2185
g12
S'12'
p2186
sg27
(dp2187
g29
I1
sg11
I16
sg30
I1
sg31
I1
sg15
I14
sg16
I16
sg32
I16
ssbag19
(g20
g21
(dp2188
tp2189
Rp2190
(dp2191
g12
S'25'
p2192
sg27
(dp2193
g29
I1
sg11
I16
sg30
I1
sg31
I1
sg15
I16
sg16
I14
sg32
I15
ssbag19
(g20
g21
(dp2194
tp2195
Rp2196
(dp2197
g12
S'30'
p2198
sg27
(dp2199
g29
I1
sg11
I14
sg30
I1
sg31
I1
sg15
I17
sg16
I14
sg32
I15
ssbag19
(g20
g21
(dp2200
tp2201
Rp2202
(dp2203
g12
S'41'
p2204
sg27
(dp2205
g29
I1
sg11
I16
sg30
I1
sg31
I1
sg15
I15
sg16
I17
sg32
I13
ssbag19
(g20
g21
(dp2206
tp2207
Rp2208
(dp2209
g12
S'45'
p2210
sg27
(dp2211
g29
I1
sg11
I15
sg30
I1
sg31
I1
sg15
I16
sg16
I14
sg32
I16
ssbag19
(g20
g21
(dp2212
tp2213
Rp2214
(dp2215
g12
S'46'
p2216
sg27
(dp2217
g29
I1
sg11
I15
sg30
I1
sg31
I1
sg15
I13
sg16
I16
sg32
I15
ssbasg32
I90
sba(i__main__
PhysicalMachine
p2218
(dp2219
g11
I91
sg12
S'3'
p2220
sg14
I00
sg15
I88
sg16
I92
sg17
(lp2221
g19
(g20
g21
(dp2222
tp2223
Rp2224
(dp2225
g12
S'2'
p2226
sg27
(dp2227
g29
I1
sg11
I15
sg30
I1
sg31
I1
sg15
I16
sg16
I15
sg32
I16
ssbag19
(g20
g21
(dp2228
tp2229
Rp2230
(dp2231
g12
S'10'
p2232
sg27
(dp2233
g29
I1
sg11
I15
sg30
I1
sg31
I1
sg15
I15
sg16
I16
sg32
I15
ssbag19
(g20
g21
(dp2234
tp2235
Rp2236
(dp2237
g12
S'14'
p2238
sg27
(dp2239
g29
I1
sg11
I14
sg30
I1
sg31
I1
sg15
I15
sg16
I15
sg32
I17
ssbag19
(g20
g21
(dp2240
tp2241
Rp2242
(dp2243
g12
S'15'
p2244
sg27
(dp2245
g29
I1
sg11
I16
sg30
I1
sg31
I1
sg15
I13
sg16
I15
sg32
I15
ssbag19
(g20
g21
(dp2246
tp2247
Rp2248
(dp2249
g12
S'38'
p2250
sg27
(dp2251
g29
I1
sg11
I16
sg30
I1
sg31
I1
sg15
I14
sg16
I16
sg32
I15
ssbag19
(g20
g21
(dp2252
tp2253
Rp2254
(dp2255
g12
S'43'
p2256
sg27
(dp2257
g29
I1
sg11
I15
sg30
I1
sg31
I1
sg15
I15
sg16
I15
sg32
I15
ssbasg32
I93
sba(i__main__
PhysicalMachine
p2258
(dp2259
g11
I88
sg12
S'4'
p2260
sg14
I00
sg15
I88
sg16
I93
sg17
(lp2261
g19
(g20
g21
(dp2262
tp2263
Rp2264
(dp2265
g12
S'1'
p2266
sg27
(dp2267
g29
I1
sg11
I16
sg30
I1
sg31
I1
sg15
I16
sg16
I14
sg32
I15
ssbag19
(g20
g21
(dp2268
tp2269
Rp2270
(dp2271
g12
S'8'
p2272
sg27
(dp2273
g29
I1
sg11
I15
sg30
I1
sg31
I1
sg15
I16
sg16
I16
sg32
I15
ssbag19
(g20
g21
(dp2274
tp2275
Rp2276
(dp2277
g12
S'24'
p2278
sg27
(dp2279
g29
I1
sg11
I15
sg30
I1
sg31
I1
sg15
I13
sg16
I16
sg32
I16
ssbag19
(g20
g21
(dp2280
tp2281
Rp2282
(dp2283
g12
S'31'
p2284
sg27
(dp2285
g29
I1
sg11
I12
sg30
I1
sg31
I1
sg15
I14
sg16
I15
sg32
I17
ssbag19
(g20
g21
(dp2286
tp2287
Rp2288
(dp2289
g12
S'33'
p2290
sg27
(dp2291
g29
I1
sg11
I15
sg30
I1
sg31
I1
sg15
I15
sg16
I16
sg32
I15
ssbag19
(g20
g21
(dp2292
tp2293
Rp2294
(dp2295
g12
S'44'
p2296
sg27
(dp2297
g29
I1
sg11
I15
sg30
I1
sg31
I1
sg15
I14
sg16
I16
sg32
I13
ssbasg32
I91
sba(i__main__
PhysicalMachine
p2298
(dp2299
g11
I94
sg12
S'5'
p2300
sg14
I00
sg15
I92
sg16
I91
sg17
(lp2301
g19
(g20
g21
(dp2302
tp2303
Rp2304
(dp2305
g12
S'5'
p2306
sg27
(dp2307
g29
I1
sg11
I16
sg30
I1
sg31
I1
sg15
I16
sg16
I16
sg32
I16
ssbag19
(g20
g21
(dp2308
tp2309
Rp2310
(dp2311
g12
S'9'
p2312
sg27
(dp2313
g29
I1
sg11
I14
sg30
I1
sg31
I1
sg15
I16
sg16
I15
sg32
I16
ssbag19
(g20
g21
(dp2314
tp2315
Rp2316
(dp2317
g12
S'11'
p2318
sg27
(dp2319
g29
I1
sg11
I15
sg30
I1
sg31
I1
sg15
I14
sg16
I13
sg32
I15
ssbag19
(g20
g21
(dp2320
tp2321
Rp2322
(dp2323
g12
S'16'
p2324
sg27
(dp2325
g29
I1
sg11
I15
sg30
I1
sg31
I1
sg15
I15
sg16
I15
sg32
I14
ssbag19
(g20
g21
(dp2326
tp2327
Rp2328
(dp2329
g12
S'20'
p2330
sg27
(dp2331
g29
I1
sg11
I16
sg30
I1
sg31
I1
sg15
I15
sg16
I16
sg32
I16
ssbag19
(g20
g21
(dp2332
tp2333
Rp2334
(dp2335
g12
S'42'
p2336
sg27
(dp2337
g29
I1
sg11
I18
sg30
I1
sg31
I1
sg15
I16
sg16
I16
sg32
I16
ssbasg32
I93
sba(i__main__
PhysicalMachine
p2338
(dp2339
g11
I90
sg12
S'6'
p2340
sg14
I00
sg15
I91
sg16
I93
sg17
(lp2341
g19
(g20
g21
(dp2342
tp2343
Rp2344
(dp2345
g12
S'6'
p2346
sg27
(dp2347
g29
I1
sg11
I15
sg30
I1
sg31
I1
sg15
I15
sg16
I15
sg32
I16
ssbag19
(g20
g21
(dp2348
tp2349
Rp2350
(dp2351
g12
S'7'
p2352
sg27
(dp2353
g29
I1
sg11
I15
sg30
I1
sg31
I1
sg15
I14
sg16
I16
sg32
I15
ssbag19
(g20
g21
(dp2354
tp2355
Rp2356
(dp2357
g12
S'26'
p2358
sg27
(dp2359
g29
I1
sg11
I15
sg30
I1
sg31
I1
sg15
I15
sg16
I16
sg32
I16
ssbag19
(g20
g21
(dp2360
tp2361
Rp2362
(dp2363
g12
S'27'
p2364
sg27
(dp2365
g29
I1
sg11
I15
sg30
I1
sg31
I1
sg15
I16
sg16
I15
sg32
I14
ssbag19
(g20
g21
(dp2366
tp2367
Rp2368
(dp2369
g12
S'36'
p2370
sg27
(dp2371
g29
I1
sg11
I15
sg30
I1
sg31
I1
sg15
I15
sg16
I15
sg32
I15
ssbag19
(g20
g21
(dp2372
tp2373
Rp2374
(dp2375
g12
S'40'
p2376
sg27
(dp2377
g29
I1
sg11
I15
sg30
I1
sg31
I1
sg15
I16
sg16
I16
sg32
I16
ssbasg32
I92
sba(i__main__
PhysicalMachine
p2378
(dp2379
g11
I93
sg12
S'7'
p2380
sg14
I00
sg15
I95
sg16
I91
sg17
(lp2381
g19
(g20
g21
(dp2382
tp2383
Rp2384
(dp2385
g12
S'0'
p2386
sg27
(dp2387
g29
I1
sg11
I16
sg30
I1
sg31
I1
sg15
I15
sg16
I15
sg32
I14
ssbag19
(g20
g21
(dp2388
tp2389
Rp2390
(dp2391
g12
S'18'
p2392
sg27
(dp2393
g29
I1
sg11
I16
sg30
I1
sg31
I1
sg15
I17
sg16
I14
sg32
I16
ssbag19
(g20
g21
(dp2394
tp2395
Rp2396
(dp2397
g12
S'19'
p2398
sg27
(dp2399
g29
I1
sg11
I15
sg30
I1
sg31
I1
sg15
I16
sg16
I16
sg32
I15
ssbag19
(g20
g21
(dp2400
tp2401
Rp2402
(dp2403
g12
S'21'
p2404
sg27
(dp2405
g29
I1
sg11
I16
sg30
I1
sg31
I1
sg15
I15
sg16
I16
sg32
I15
ssbag19
(g20
g21
(dp2406
tp2407
Rp2408
(dp2409
g12
S'29'
p2410
sg27
(dp2411
g29
I1
sg11
I15
sg30
I1
sg31
I1
sg15
I16
sg16
I16
sg32
I15
ssbag19
(g20
g21
(dp2412
tp2413
Rp2414
(dp2415
g12
S'34'
p2416
sg27
(dp2417
g29
I1
sg11
I15
sg30
I1
sg31
I1
sg15
I16
sg16
I14
sg32
I15
ssbasg32
I90
sba(i__main__
PhysicalMachine
p2418
(dp2419
g11
I0
sg12
S'8'
p2420
sg14
I01
sg15
I0
sg16
I0
sg17
(lp2421
sg32
I0
sba(i__main__
PhysicalMachine
p2422
(dp2423
g11
I0
sg12
S'9'
p2424
sg14
I01
sg15
I0
sg16
I0
sg17
(lp2425
sg32
I0
sba(i__main__
PhysicalMachine
p2426
(dp2427
g11
I0
sg12
S'10'
p2428
sg14
I01
sg15
I0
sg16
I0
sg17
(lp2429
sg32
I0
sba(i__main__
PhysicalMachine
p2430
(dp2431
g11
I0
sg12
S'11'
p2432
sg14
I01
sg15
I0
sg16
I0
sg17
(lp2433
sg32
I0
sba(i__main__
PhysicalMachine
p2434
(dp2435
g11
I0
sg12
S'12'
p2436
sg14
I01
sg15
I0
sg16
I0
sg17
(lp2437
sg32
I0
sba(i__main__
PhysicalMachine
p2438
(dp2439
g11
I0
sg12
S'13'
p2440
sg14
I01
sg15
I0
sg16
I0
sg17
(lp2441
sg32
I0
sba(i__main__
PhysicalMachine
p2442
(dp2443
g11
I0
sg12
S'14'
p2444
sg14
I01
sg15
I0
sg16
I0
sg17
(lp2445
sg32
I0
sba(i__main__
PhysicalMachine
p2446
(dp2447
g11
I0
sg12
S'15'
p2448
sg14
I01
sg15
I0
sg16
I0
sg17
(lp2449
sg32
I0
sba(i__main__
PhysicalMachine
p2450
(dp2451
g11
I0
sg12
S'16'
p2452
sg14
I01
sg15
I0
sg16
I0
sg17
(lp2453
sg32
I0
sba(i__main__
PhysicalMachine
p2454
(dp2455
g11
I0
sg12
S'17'
p2456
sg14
I01
sg15
I0
sg16
I0
sg17
(lp2457
sg32
I0
sba(i__main__
PhysicalMachine
p2458
(dp2459
g11
I0
sg12
S'18'
p2460
sg14
I01
sg15
I0
sg16
I0
sg17
(lp2461
sg32
I0
sba(i__main__
PhysicalMachine
p2462
(dp2463
g11
I0
sg12
S'19'
p2464
sg14
I01
sg15
I0
sg16
I0
sg17
(lp2465
sg32
I0
sba(i__main__
PhysicalMachine
p2466
(dp2467
g11
I0
sg12
S'20'
p2468
sg14
I01
sg15
I0
sg16
I0
sg17
(lp2469
sg32
I0
sba(i__main__
PhysicalMachine
p2470
(dp2471
g11
I0
sg12
S'21'
p2472
sg14
I01
sg15
I0
sg16
I0
sg17
(lp2473
sg32
I0
sba(i__main__
PhysicalMachine
p2474
(dp2475
g11
I0
sg12
S'22'
p2476
sg14
I01
sg15
I0
sg16
I0
sg17
(lp2477
sg32
I0
sba(i__main__
PhysicalMachine
p2478
(dp2479
g11
I0
sg12
S'23'
p2480
sg14
I01
sg15
I0
sg16
I0
sg17
(lp2481
sg32
I0
sba(i__main__
PhysicalMachine
p2482
(dp2483
g11
I0
sg12
S'24'
p2484
sg14
I01
sg15
I0
sg16
I0
sg17
(lp2485
sg32
I0
sba(i__main__
PhysicalMachine
p2486
(dp2487
g11
I0
sg12
S'25'
p2488
sg14
I01
sg15
I0
sg16
I0
sg17
(lp2489
sg32
I0
sba(i__main__
PhysicalMachine
p2490
(dp2491
g11
I0
sg12
S'26'
p2492
sg14
I01
sg15
I0
sg16
I0
sg17
(lp2493
sg32
I0
sba(i__main__
PhysicalMachine
p2494
(dp2495
g11
I0
sg12
S'27'
p2496
sg14
I01
sg15
I0
sg16
I0
sg17
(lp2497
sg32
I0
sba(i__main__
PhysicalMachine
p2498
(dp2499
g11
I0
sg12
S'28'
p2500
sg14
I01
sg15
I0
sg16
I0
sg17
(lp2501
sg32
I0
sba(i__main__
PhysicalMachine
p2502
(dp2503
g11
I0
sg12
S'29'
p2504
sg14
I01
sg15
I0
sg16
I0
sg17
(lp2505
sg32
I0
sba(i__main__
PhysicalMachine
p2506
(dp2507
g11
I0
sg12
S'30'
p2508
sg14
I01
sg15
I0
sg16
I0
sg17
(lp2509
sg32
I0
sba(i__main__
PhysicalMachine
p2510
(dp2511
g11
I0
sg12
S'31'
p2512
sg14
I01
sg15
I0
sg16
I0
sg17
(lp2513
sg32
I0
sba(i__main__
PhysicalMachine
p2514
(dp2515
g11
I0
sg12
S'32'
p2516
sg14
I01
sg15
I0
sg16
I0
sg17
(lp2517
sg32
I0
sba(i__main__
PhysicalMachine
p2518
(dp2519
g11
I0
sg12
S'33'
p2520
sg14
I01
sg15
I0
sg16
I0
sg17
(lp2521
sg32
I0
sba(i__main__
PhysicalMachine
p2522
(dp2523
g11
I0
sg12
S'34'
p2524
sg14
I01
sg15
I0
sg16
I0
sg17
(lp2525
sg32
I0
sba(i__main__
PhysicalMachine
p2526
(dp2527
g11
I0
sg12
S'35'
p2528
sg14
I01
sg15
I0
sg16
I0
sg17
(lp2529
sg32
I0
sba(i__main__
PhysicalMachine
p2530
(dp2531
g11
I0
sg12
S'36'
p2532
sg14
I01
sg15
I0
sg16
I0
sg17
(lp2533
sg32
I0
sba(i__main__
PhysicalMachine
p2534
(dp2535
g11
I0
sg12
S'37'
p2536
sg14
I01
sg15
I0
sg16
I0
sg17
(lp2537
sg32
I0
sba(i__main__
PhysicalMachine
p2538
(dp2539
g11
I0
sg12
S'38'
p2540
sg14
I01
sg15
I0
sg16
I0
sg17
(lp2541
sg32
I0
sba(i__main__
PhysicalMachine
p2542
(dp2543
g11
I0
sg12
S'39'
p2544
sg14
I01
sg15
I0
sg16
I0
sg17
(lp2545
sg32
I0
sba(i__main__
PhysicalMachine
p2546
(dp2547
g11
I0
sg12
S'40'
p2548
sg14
I01
sg15
I0
sg16
I0
sg17
(lp2549
sg32
I0
sba(i__main__
PhysicalMachine
p2550
(dp2551
g11
I0
sg12
S'41'
p2552
sg14
I01
sg15
I0
sg16
I0
sg17
(lp2553
sg32
I0
sba(i__main__
PhysicalMachine
p2554
(dp2555
g11
I0
sg12
S'42'
p2556
sg14
I01
sg15
I0
sg16
I0
sg17
(lp2557
sg32
I0
sba(i__main__
PhysicalMachine
p2558
(dp2559
g11
I0
sg12
S'43'
p2560
sg14
I01
sg15
I0
sg16
I0
sg17
(lp2561
sg32
I0
sba(i__main__
PhysicalMachine
p2562
(dp2563
g11
I0
sg12
S'44'
p2564
sg14
I01
sg15
I0
sg16
I0
sg17
(lp2565
sg32
I0
sba(i__main__
PhysicalMachine
p2566
(dp2567
g11
I0
sg12
S'45'
p2568
sg14
I01
sg15
I0
sg16
I0
sg17
(lp2569
sg32
I0
sba(i__main__
PhysicalMachine
p2570
(dp2571
g11
I0
sg12
S'46'
p2572
sg14
I01
sg15
I0
sg16
I0
sg17
(lp2573
sg32
I0
sba(i__main__
PhysicalMachine
p2574
(dp2575
g11
I0
sg12
S'47'
p2576
sg14
I01
sg15
I0
sg16
I0
sg17
(lp2577
sg32
I0
sba(i__main__
PhysicalMachine
p2578
(dp2579
g11
I0
sg12
S'48'
p2580
sg14
I01
sg15
I0
sg16
I0
sg17
(lp2581
sg32
I0
sba(i__main__
PhysicalMachine
p2582
(dp2583
g11
I0
sg12
S'49'
p2584
sg14
I01
sg15
I0
sg16
I0
sg17
(lp2585
sg32
I0
sba(i__main__
PhysicalMachine
p2586
(dp2587
g11
I0
sg12
S'50'
p2588
sg14
I01
sg15
I0
sg16
I0
sg17
(lp2589
sg32
I0
sba(i__main__
PhysicalMachine
p2590
(dp2591
g11
I0
sg12
S'51'
p2592
sg14
I01
sg15
I0
sg16
I0
sg17
(lp2593
sg32
I0
sba(i__main__
PhysicalMachine
p2594
(dp2595
g11
I0
sg12
S'52'
p2596
sg14
I01
sg15
I0
sg16
I0
sg17
(lp2597
sg32
I0
sba(i__main__
PhysicalMachine
p2598
(dp2599
g11
I0
sg12
S'53'
p2600
sg14
I01
sg15
I0
sg16
I0
sg17
(lp2601
sg32
I0
sba(i__main__
PhysicalMachine
p2602
(dp2603
g11
I0
sg12
S'54'
p2604
sg14
I01
sg15
I0
sg16
I0
sg17
(lp2605
sg32
I0
sba(i__main__
PhysicalMachine
p2606
(dp2607
g11
I0
sg12
S'55'
p2608
sg14
I01
sg15
I0
sg16
I0
sg17
(lp2609
sg32
I0
sba(i__main__
PhysicalMachine
p2610
(dp2611
g11
I0
sg12
S'56'
p2612
sg14
I01
sg15
I0
sg16
I0
sg17
(lp2613
sg32
I0
sba(i__main__
PhysicalMachine
p2614
(dp2615
g11
I0
sg12
S'57'
p2616
sg14
I01
sg15
I0
sg16
I0
sg17
(lp2617
sg32
I0
sba(i__main__
PhysicalMachine
p2618
(dp2619
g11
I0
sg12
S'58'
p2620
sg14
I01
sg15
I0
sg16
I0
sg17
(lp2621
sg32
I0
sba(i__main__
PhysicalMachine
p2622
(dp2623
g11
I0
sg12
S'59'
p2624
sg14
I01
sg15
I0
sg16
I0
sg17
(lp2625
sg32
I0
sba(i__main__
PhysicalMachine
p2626
(dp2627
g11
I0
sg12
S'60'
p2628
sg14
I01
sg15
I0
sg16
I0
sg17
(lp2629
sg32
I0
sba(i__main__
PhysicalMachine
p2630
(dp2631
g11
I0
sg12
S'61'
p2632
sg14
I01
sg15
I0
sg16
I0
sg17
(lp2633
sg32
I0
sba(i__main__
PhysicalMachine
p2634
(dp2635
g11
I0
sg12
S'62'
p2636
sg14
I01
sg15
I0
sg16
I0
sg17
(lp2637
sg32
I0
sba(i__main__
PhysicalMachine
p2638
(dp2639
g11
I0
sg12
S'63'
p2640
sg14
I01
sg15
I0
sg16
I0
sg17
(lp2641
sg32
I0
sba(i__main__
PhysicalMachine
p2642
(dp2643
g11
I0
sg12
S'64'
p2644
sg14
I01
sg15
I0
sg16
I0
sg17
(lp2645
sg32
I0
sba(i__main__
PhysicalMachine
p2646
(dp2647
g11
I0
sg12
S'65'
p2648
sg14
I01
sg15
I0
sg16
I0
sg17
(lp2649
sg32
I0
sba(i__main__
PhysicalMachine
p2650
(dp2651
g11
I0
sg12
S'66'
p2652
sg14
I01
sg15
I0
sg16
I0
sg17
(lp2653
sg32
I0
sba(i__main__
PhysicalMachine
p2654
(dp2655
g11
I0
sg12
S'67'
p2656
sg14
I01
sg15
I0
sg16
I0
sg17
(lp2657
sg32
I0
sba(i__main__
PhysicalMachine
p2658
(dp2659
g11
I0
sg12
S'68'
p2660
sg14
I01
sg15
I0
sg16
I0
sg17
(lp2661
sg32
I0
sba(i__main__
PhysicalMachine
p2662
(dp2663
g11
I0
sg12
S'69'
p2664
sg14
I01
sg15
I0
sg16
I0
sg17
(lp2665
sg32
I0
sba(i__main__
PhysicalMachine
p2666
(dp2667
g11
I0
sg12
S'70'
p2668
sg14
I01
sg15
I0
sg16
I0
sg17
(lp2669
sg32
I0
sba(i__main__
PhysicalMachine
p2670
(dp2671
g11
I0
sg12
S'71'
p2672
sg14
I01
sg15
I0
sg16
I0
sg17
(lp2673
sg32
I0
sbasbsg407
F2226.16
sg408
F1383314036.120254
sg409
I8
sg410
g411
sg1589
F2.195711851119995
sg1590
I48
sg1591
(i__main__
Manager
p2674
(dp2675
g1585
(i__main__
VMManager
p2676
(dp2677
g7
(lp2678
sbsg4
(lp2679
sg1598
I48
sg410
g411
sg1599
I72
sg413
g2095
sbsg1600
F1383314038.315966
sg1601
I48
sg1602
I0
sg1603
I72
sa(dp2680
g2
I61
sg3
I0
sg4
(i__main__
PMManager
p2681
(dp2682
g7
(lp2683
(i__main__
PhysicalMachine
p2684
(dp2685
g11
I91
sg12
S'0'
p2686
sg14
I00
sg15
I88
sg16
I91
sg17
(lp2687
g19
(g20
g21
(dp2688
tp2689
Rp2690
(dp2691
g12
S'6'
p2692
sg27
(dp2693
g29
I1
sg11
I15
sg30
I1
sg31
I1
sg15
I15
sg16
I15
sg32
I16
ssbag19
(g20
g21
(dp2694
tp2695
Rp2696
(dp2697
g12
S'14'
p2698
sg27
(dp2699
g29
I1
sg11
I14
sg30
I1
sg31
I1
sg15
I15
sg16
I15
sg32
I17
ssbag19
(g20
g21
(dp2700
tp2701
Rp2702
(dp2703
g12
S'39'
p2704
sg27
(dp2705
g29
I1
sg11
I16
sg30
I1
sg31
I1
sg15
I14
sg16
I16
sg32
I13
ssbag19
(g20
g21
(dp2706
tp2707
Rp2708
(dp2709
g12
S'43'
p2710
sg27
(dp2711
g29
I1
sg11
I15
sg30
I1
sg31
I1
sg15
I15
sg16
I15
sg32
I15
ssbag19
(g20
g21
(dp2712
tp2713
Rp2714
(dp2715
g12
S'48'
p2716
sg27
(dp2717
g29
I1
sg11
I16
sg30
I1
sg31
I1
sg15
I14
sg16
I16
sg32
I16
ssbag19
(g20
g21
(dp2718
tp2719
Rp2720
(dp2721
g12
S'57'
p2722
sg27
(dp2723
g29
I1
sg11
I15
sg30
I1
sg31
I1
sg15
I15
sg16
I14
sg32
I13
ssbasg32
I90
sba(i__main__
PhysicalMachine
p2724
(dp2725
g11
I93
sg12
S'1'
p2726
sg14
I00
sg15
I96
sg16
I87
sg17
(lp2727
g19
(g20
g21
(dp2728
tp2729
Rp2730
(dp2731
g12
S'17'
p2732
sg27
(dp2733
g29
I1
sg11
I16
sg30
I1
sg31
I1
sg15
I15
sg16
I14
sg32
I14
ssbag19
(g20
g21
(dp2734
tp2735
Rp2736
(dp2737
g12
S'30'
p2738
sg27
(dp2739
g29
I1
sg11
I14
sg30
I1
sg31
I1
sg15
I17
sg16
I14
sg32
I15
ssbag19
(g20
g21
(dp2740
tp2741
Rp2742
(dp2743
g12
S'33'
p2744
sg27
(dp2745
g29
I1
sg11
I15
sg30
I1
sg31
I1
sg15
I15
sg16
I16
sg32
I15
ssbag19
(g20
g21
(dp2746
tp2747
Rp2748
(dp2749
g12
S'49'
p2750
sg27
(dp2751
g29
I1
sg11
I16
sg30
I1
sg31
I1
sg15
I16
sg16
I14
sg32
I16
ssbag19
(g20
g21
(dp2752
tp2753
Rp2754
(dp2755
g12
S'55'
p2756
sg27
(dp2757
g29
I1
sg11
I16
sg30
I1
sg31
I1
sg15
I16
sg16
I15
sg32
I15
ssbag19
(g20
g21
(dp2758
tp2759
Rp2760
(dp2761
g12
S'56'
p2762
sg27
(dp2763
g29
I1
sg11
I16
sg30
I1
sg31
I1
sg15
I17
sg16
I14
sg32
I13
ssbasg32
I88
sba(i__main__
PhysicalMachine
p2764
(dp2765
g11
I88
sg12
S'2'
p2766
sg14
I00
sg15
I93
sg16
I92
sg17
(lp2767
g19
(g20
g21
(dp2768
tp2769
Rp2770
(dp2771
g12
S'3'
p2772
sg27
(dp2773
g29
I1
sg11
I14
sg30
I1
sg31
I1
sg15
I16
sg16
I15
sg32
I16
ssbag19
(g20
g21
(dp2774
tp2775
Rp2776
(dp2777
g12
S'10'
p2778
sg27
(dp2779
g29
I1
sg11
I15
sg30
I1
sg31
I1
sg15
I15
sg16
I16
sg32
I15
ssbag19
(g20
g21
(dp2780
tp2781
Rp2782
(dp2783
g12
S'26'
p2784
sg27
(dp2785
g29
I1
sg11
I15
sg30
I1
sg31
I1
sg15
I15
sg16
I16
sg32
I16
ssbag19
(g20
g21
(dp2786
tp2787
Rp2788
(dp2789
g12
S'27'
p2790
sg27
(dp2791
g29
I1
sg11
I15
sg30
I1
sg31
I1
sg15
I16
sg16
I15
sg32
I14
ssbag19
(g20
g21
(dp2792
tp2793
Rp2794
(dp2795
g12
S'35'
p2796
sg27
(dp2797
g29
I1
sg11
I14
sg30
I1
sg31
I1
sg15
I15
sg16
I14
sg32
I17
ssbag19
(g20
g21
(dp2798
tp2799
Rp2800
(dp2801
g12
S'40'
p2802
sg27
(dp2803
g29
I1
sg11
I15
sg30
I1
sg31
I1
sg15
I16
sg16
I16
sg32
I16
ssbasg32
I94
sba(i__main__
PhysicalMachine
p2804
(dp2805
g11
I94
sg12
S'3'
p2806
sg14
I00
sg15
I89
sg16
I92
sg17
(lp2807
g19
(g20
g21
(dp2808
tp2809
Rp2810
(dp2811
g12
S'0'
p2812
sg27
(dp2813
g29
I1
sg11
I16
sg30
I1
sg31
I1
sg15
I15
sg16
I15
sg32
I14
ssbag19
(g20
g21
(dp2814
tp2815
Rp2816
(dp2817
g12
S'9'
p2818
sg27
(dp2819
g29
I1
sg11
I14
sg30
I1
sg31
I1
sg15
I16
sg16
I15
sg32
I16
ssbag19
(g20
g21
(dp2820
tp2821
Rp2822
(dp2823
g12
S'12'
p2824
sg27
(dp2825
g29
I1
sg11
I16
sg30
I1
sg31
I1
sg15
I14
sg16
I16
sg32
I16
ssbag19
(g20
g21
(dp2826
tp2827
Rp2828
(dp2829
g12
S'21'
p2830
sg27
(dp2831
g29
I1
sg11
I16
sg30
I1
sg31
I1
sg15
I15
sg16
I16
sg32
I15
ssbag19
(g20
g21
(dp2832
tp2833
Rp2834
(dp2835
g12
S'45'
p2836
sg27
(dp2837
g29
I1
sg11
I15
sg30
I1
sg31
I1
sg15
I16
sg16
I14
sg32
I16
ssbag19
(g20
g21
(dp2838
tp2839
Rp2840
(dp2841
g12
S'47'
p2842
sg27
(dp2843
g29
I1
sg11
I17
sg30
I1
sg31
I1
sg15
I13
sg16
I16
sg32
I16
ssbasg32
I93
sba(i__main__
PhysicalMachine
p2844
(dp2845
g11
I87
sg12
S'4'
p2846
sg14
I00
sg15
I90
sg16
I93
sg17
(lp2847
g19
(g20
g21
(dp2848
tp2849
Rp2850
(dp2851
g12
S'8'
p2852
sg27
(dp2853
g29
I1
sg11
I15
sg30
I1
sg31
I1
sg15
I16
sg16
I16
sg32
I15
ssbag19
(g20
g21
(dp2854
tp2855
Rp2856
(dp2857
g12
S'19'
p2858
sg27
(dp2859
g29
I1
sg11
I15
sg30
I1
sg31
I1
sg15
I16
sg16
I16
sg32
I15
ssbag19
(g20
g21
(dp2860
tp2861
Rp2862
(dp2863
g12
S'28'
p2864
sg27
(dp2865
g29
I1
sg11
I15
sg30
I1
sg31
I1
sg15
I15
sg16
I15
sg32
I15
ssbag19
(g20
g21
(dp2866
tp2867
Rp2868
(dp2869
g12
S'31'
p2870
sg27
(dp2871
g29
I1
sg11
I12
sg30
I1
sg31
I1
sg15
I14
sg16
I15
sg32
I17
ssbag19
(g20
g21
(dp2872
tp2873
Rp2874
(dp2875
g12
S'36'
p2876
sg27
(dp2877
g29
I1
sg11
I15
sg30
I1
sg31
I1
sg15
I15
sg16
I15
sg32
I15
ssbag19
(g20
g21
(dp2878
tp2879
Rp2880
(dp2881
g12
S'44'
p2882
sg27
(dp2883
g29
I1
sg11
I15
sg30
I1
sg31
I1
sg15
I14
sg16
I16
sg32
I13
ssbasg32
I90
sba(i__main__
PhysicalMachine
p2884
(dp2885
g11
I94
sg12
S'5'
p2886
sg14
I00
sg15
I89
sg16
I90
sg17
(lp2887
g19
(g20
g21
(dp2888
tp2889
Rp2890
(dp2891
g12
S'1'
p2892
sg27
(dp2893
g29
I1
sg11
I16
sg30
I1
sg31
I1
sg15
I16
sg16
I14
sg32
I15
ssbag19
(g20
g21
(dp2894
tp2895
Rp2896
(dp2897
g12
S'23'
p2898
sg27
(dp2899
g29
I1
sg11
I16
sg30
I1
sg31
I1
sg15
I14
sg16
I15
sg32
I15
ssbag19
(g20
g21
(dp2900
tp2901
Rp2902
(dp2903
g12
S'24'
p2904
sg27
(dp2905
g29
I1
sg11
I15
sg30
I1
sg31
I1
sg15
I13
sg16
I16
sg32
I16
ssbag19
(g20
g21
(dp2906
tp2907
Rp2908
(dp2909
g12
S'25'
p2910
sg27
(dp2911
g29
I1
sg11
I16
sg30
I1
sg31
I1
sg15
I16
sg16
I14
sg32
I15
ssbag19
(g20
g21
(dp2912
tp2913
Rp2914
(dp2915
g12
S'41'
p2916
sg27
(dp2917
g29
I1
sg11
I16
sg30
I1
sg31
I1
sg15
I15
sg16
I17
sg32
I13
ssbag19
(g20
g21
(dp2918
tp2919
Rp2920
(dp2921
g12
S'52'
p2922
sg27
(dp2923
g29
I1
sg11
I15
sg30
I1
sg31
I1
sg15
I15
sg16
I14
sg32
I16
ssbasg32
I90
sba(i__main__
PhysicalMachine
p2924
(dp2925
g11
I91
sg12
S'6'
p2926
sg14
I00
sg15
I91
sg16
I87
sg17
(lp2927
g19
(g20
g21
(dp2928
tp2929
Rp2930
(dp2931
g12
S'2'
p2932
sg27
(dp2933
g29
I1
sg11
I15
sg30
I1
sg31
I1
sg15
I16
sg16
I15
sg32
I16
ssbag19
(g20
g21
(dp2934
tp2935
Rp2936
(dp2937
g12
S'4'
p2938
sg27
(dp2939
g29
I1
sg11
I15
sg30
I1
sg31
I1
sg15
I14
sg16
I13
sg32
I16
ssbag19
(g20
g21
(dp2940
tp2941
Rp2942
(dp2943
g12
S'11'
p2944
sg27
(dp2945
g29
I1
sg11
I15
sg30
I1
sg31
I1
sg15
I14
sg16
I13
sg32
I15
ssbag19
(g20
g21
(dp2946
tp2947
Rp2948
(dp2949
g12
S'13'
p2950
sg27
(dp2951
g29
I1
sg11
I16
sg30
I1
sg31
I1
sg15
I17
sg16
I14
sg32
I15
ssbag19
(g20
g21
(dp2952
tp2953
Rp2954
(dp2955
g12
S'16'
p2956
sg27
(dp2957
g29
I1
sg11
I15
sg30
I1
sg31
I1
sg15
I15
sg16
I15
sg32
I14
ssbag19
(g20
g21
(dp2958
tp2959
Rp2960
(dp2961
g12
S'32'
p2962
sg27
(dp2963
g29
I1
sg11
I15
sg30
I1
sg31
I1
sg15
I15
sg16
I17
sg32
I15
ssbasg32
I91
sba(i__main__
PhysicalMachine
p2964
(dp2965
g11
I94
sg12
S'7'
p2966
sg14
I00
sg15
I90
sg16
I96
sg17
(lp2967
g19
(g20
g21
(dp2968
tp2969
Rp2970
(dp2971
g12
S'5'
p2972
sg27
(dp2973
g29
I1
sg11
I16
sg30
I1
sg31
I1
sg15
I16
sg16
I16
sg32
I16
ssbag19
(g20
g21
(dp2974
tp2975
Rp2976
(dp2977
g12
S'42'
p2978
sg27
(dp2979
g29
I1
sg11
I18
sg30
I1
sg31
I1
sg15
I16
sg16
I16
sg32
I16
ssbag19
(g20
g21
(dp2980
tp2981
Rp2982
(dp2983
g12
S'46'
p2984
sg27
(dp2985
g29
I1
sg11
I15
sg30
I1
sg31
I1
sg15
I13
sg16
I16
sg32
I15
ssbag19
(g20
g21
(dp2986
tp2987
Rp2988
(dp2989
g12
S'61'
p2990
sg27
(dp2991
g29
I1
sg11
I14
sg30
I1
sg31
I1
sg15
I15
sg16
I15
sg32
I16
ssbag19
(g20
g21
(dp2992
tp2993
Rp2994
(dp2995
g12
S'62'
p2996
sg27
(dp2997
g29
I1
sg11
I15
sg30
I1
sg31
I1
sg15
I16
sg16
I17
sg32
I14
ssbag19
(g20
g21
(dp2998
tp2999
Rp3000
(dp3001
g12
S'63'
p3002
sg27
(dp3003
g29
I1
sg11
I16
sg30
I1
sg31
I1
sg15
I14
sg16
I16
sg32
I16
ssbasg32
I93
sba(i__main__
PhysicalMachine
p3004
(dp3005
g11
I90
sg12
S'8'
p3006
sg14
I00
sg15
I95
sg16
I95
sg17
(lp3007
g19
(g20
g21
(dp3008
tp3009
Rp3010
(dp3011
g12
S'20'
p3012
sg27
(dp3013
g29
I1
sg11
I16
sg30
I1
sg31
I1
sg15
I15
sg16
I16
sg32
I16
ssbag19
(g20
g21
(dp3014
tp3015
Rp3016
(dp3017
g12
S'29'
p3018
sg27
(dp3019
g29
I1
sg11
I15
sg30
I1
sg31
I1
sg15
I16
sg16
I16
sg32
I15
ssbag19
(g20
g21
(dp3020
tp3021
Rp3022
(dp3023
g12
S'34'
p3024
sg27
(dp3025
g29
I1
sg11
I15
sg30
I1
sg31
I1
sg15
I16
sg16
I14
sg32
I15
ssbag19
(g20
g21
(dp3026
tp3027
Rp3028
(dp3029
g12
S'37'
p3030
sg27
(dp3031
g29
I1
sg11
I15
sg30
I1
sg31
I1
sg15
I17
sg16
I17
sg32
I15
ssbag19
(g20
g21
(dp3032
tp3033
Rp3034
(dp3035
g12
S'53'
p3036
sg27
(dp3037
g29
I1
sg11
I13
sg30
I1
sg31
I1
sg15
I16
sg16
I15
sg32
I16
ssbag19
(g20
g21
(dp3038
tp3039
Rp3040
(dp3041
g12
S'58'
p3042
sg27
(dp3043
g29
I1
sg11
I16
sg30
I1
sg31
I1
sg15
I15
sg16
I17
sg32
I17
ssbasg32
I94
sba(i__main__
PhysicalMachine
p3044
(dp3045
g11
I93
sg12
S'9'
p3046
sg14
I00
sg15
I93
sg16
I90
sg17
(lp3047
g19
(g20
g21
(dp3048
tp3049
Rp3050
(dp3051
g12
S'7'
p3052
sg27
(dp3053
g29
I1
sg11
I15
sg30
I1
sg31
I1
sg15
I14
sg16
I16
sg32
I15
ssbag19
(g20
g21
(dp3054
tp3055
Rp3056
(dp3057
g12
S'18'
p3058
sg27
(dp3059
g29
I1
sg11
I16
sg30
I1
sg31
I1
sg15
I17
sg16
I14
sg32
I16
ssbag19
(g20
g21
(dp3060
tp3061
Rp3062
(dp3063
g12
S'22'
p3064
sg27
(dp3065
g29
I1
sg11
I13
sg30
I1
sg31
I1
sg15
I16
sg16
I15
sg32
I15
ssbag19
(g20
g21
(dp3066
tp3067
Rp3068
(dp3069
g12
S'50'
p3070
sg27
(dp3071
g29
I1
sg11
I16
sg30
I1
sg31
I1
sg15
I15
sg16
I14
sg32
I15
ssbag19
(g20
g21
(dp3072
tp3073
Rp3074
(dp3075
g12
S'59'
p3076
sg27
(dp3077
g29
I1
sg11
I16
sg30
I1
sg31
I1
sg15
I16
sg16
I15
sg32
I16
ssbag19
(g20
g21
(dp3078
tp3079
Rp3080
(dp3081
g12
S'60'
p3082
sg27
(dp3083
g29
I1
sg11
I17
sg30
I1
sg31
I1
sg15
I15
sg16
I16
sg32
I16
ssbasg32
I93
sba(i__main__
PhysicalMachine
p3084
(dp3085
g11
I62
sg12
S'10'
p3086
sg14
I00
sg15
I54
sg16
I62
sg17
(lp3087
g19
(g20
g21
(dp3088
tp3089
Rp3090
(dp3091
g12
S'15'
p3092
sg27
(dp3093
g29
I1
sg11
I16
sg30
I1
sg31
I1
sg15
I13
sg16
I15
sg32
I15
ssbag19
(g20
g21
(dp3094
tp3095
Rp3096
(dp3097
g12
S'38'
p3098
sg27
(dp3099
g29
I1
sg11
I16
sg30
I1
sg31
I1
sg15
I14
sg16
I16
sg32
I15
ssbag19
(g20
g21
(dp3100
tp3101
Rp3102
(dp3103
g12
S'51'
p3104
sg27
(dp3105
g29
I1
sg11
I14
sg30
I1
sg31
I1
sg15
I13
sg16
I15
sg32
I16
ssbag19
(g20
g21
(dp3106
tp3107
Rp3108
(dp3109
g12
S'54'
p3110
sg27
(dp3111
g29
I1
sg11
I16
sg30
I1
sg31
I1
sg15
I14
sg16
I16
sg32
I15
ssbasg32
I61
sba(i__main__
PhysicalMachine
p3112
(dp3113
g11
I0
sg12
S'11'
p3114
sg14
I01
sg15
I0
sg16
I0
sg17
(lp3115
sg32
I0
sba(i__main__
PhysicalMachine
p3116
(dp3117
g11
I0
sg12
S'12'
p3118
sg14
I01
sg15
I0
sg16
I0
sg17
(lp3119
sg32
I0
sba(i__main__
PhysicalMachine
p3120
(dp3121
g11
I0
sg12
S'13'
p3122
sg14
I01
sg15
I0
sg16
I0
sg17
(lp3123
sg32
I0
sba(i__main__
PhysicalMachine
p3124
(dp3125
g11
I0
sg12
S'14'
p3126
sg14
I01
sg15
I0
sg16
I0
sg17
(lp3127
sg32
I0
sba(i__main__
PhysicalMachine
p3128
(dp3129
g11
I0
sg12
S'15'
p3130
sg14
I01
sg15
I0
sg16
I0
sg17
(lp3131
sg32
I0
sba(i__main__
PhysicalMachine
p3132
(dp3133
g11
I0
sg12
S'16'
p3134
sg14
I01
sg15
I0
sg16
I0
sg17
(lp3135
sg32
I0
sba(i__main__
PhysicalMachine
p3136
(dp3137
g11
I0
sg12
S'17'
p3138
sg14
I01
sg15
I0
sg16
I0
sg17
(lp3139
sg32
I0
sba(i__main__
PhysicalMachine
p3140
(dp3141
g11
I0
sg12
S'18'
p3142
sg14
I01
sg15
I0
sg16
I0
sg17
(lp3143
sg32
I0
sba(i__main__
PhysicalMachine
p3144
(dp3145
g11
I0
sg12
S'19'
p3146
sg14
I01
sg15
I0
sg16
I0
sg17
(lp3147
sg32
I0
sba(i__main__
PhysicalMachine
p3148
(dp3149
g11
I0
sg12
S'20'
p3150
sg14
I01
sg15
I0
sg16
I0
sg17
(lp3151
sg32
I0
sba(i__main__
PhysicalMachine
p3152
(dp3153
g11
I0
sg12
S'21'
p3154
sg14
I01
sg15
I0
sg16
I0
sg17
(lp3155
sg32
I0
sba(i__main__
PhysicalMachine
p3156
(dp3157
g11
I0
sg12
S'22'
p3158
sg14
I01
sg15
I0
sg16
I0
sg17
(lp3159
sg32
I0
sba(i__main__
PhysicalMachine
p3160
(dp3161
g11
I0
sg12
S'23'
p3162
sg14
I01
sg15
I0
sg16
I0
sg17
(lp3163
sg32
I0
sba(i__main__
PhysicalMachine
p3164
(dp3165
g11
I0
sg12
S'24'
p3166
sg14
I01
sg15
I0
sg16
I0
sg17
(lp3167
sg32
I0
sba(i__main__
PhysicalMachine
p3168
(dp3169
g11
I0
sg12
S'25'
p3170
sg14
I01
sg15
I0
sg16
I0
sg17
(lp3171
sg32
I0
sba(i__main__
PhysicalMachine
p3172
(dp3173
g11
I0
sg12
S'26'
p3174
sg14
I01
sg15
I0
sg16
I0
sg17
(lp3175
sg32
I0
sba(i__main__
PhysicalMachine
p3176
(dp3177
g11
I0
sg12
S'27'
p3178
sg14
I01
sg15
I0
sg16
I0
sg17
(lp3179
sg32
I0
sba(i__main__
PhysicalMachine
p3180
(dp3181
g11
I0
sg12
S'28'
p3182
sg14
I01
sg15
I0
sg16
I0
sg17
(lp3183
sg32
I0
sba(i__main__
PhysicalMachine
p3184
(dp3185
g11
I0
sg12
S'29'
p3186
sg14
I01
sg15
I0
sg16
I0
sg17
(lp3187
sg32
I0
sba(i__main__
PhysicalMachine
p3188
(dp3189
g11
I0
sg12
S'30'
p3190
sg14
I01
sg15
I0
sg16
I0
sg17
(lp3191
sg32
I0
sba(i__main__
PhysicalMachine
p3192
(dp3193
g11
I0
sg12
S'31'
p3194
sg14
I01
sg15
I0
sg16
I0
sg17
(lp3195
sg32
I0
sba(i__main__
PhysicalMachine
p3196
(dp3197
g11
I0
sg12
S'32'
p3198
sg14
I01
sg15
I0
sg16
I0
sg17
(lp3199
sg32
I0
sba(i__main__
PhysicalMachine
p3200
(dp3201
g11
I0
sg12
S'33'
p3202
sg14
I01
sg15
I0
sg16
I0
sg17
(lp3203
sg32
I0
sba(i__main__
PhysicalMachine
p3204
(dp3205
g11
I0
sg12
S'34'
p3206
sg14
I01
sg15
I0
sg16
I0
sg17
(lp3207
sg32
I0
sba(i__main__
PhysicalMachine
p3208
(dp3209
g11
I0
sg12
S'35'
p3210
sg14
I01
sg15
I0
sg16
I0
sg17
(lp3211
sg32
I0
sba(i__main__
PhysicalMachine
p3212
(dp3213
g11
I0
sg12
S'36'
p3214
sg14
I01
sg15
I0
sg16
I0
sg17
(lp3215
sg32
I0
sba(i__main__
PhysicalMachine
p3216
(dp3217
g11
I0
sg12
S'37'
p3218
sg14
I01
sg15
I0
sg16
I0
sg17
(lp3219
sg32
I0
sba(i__main__
PhysicalMachine
p3220
(dp3221
g11
I0
sg12
S'38'
p3222
sg14
I01
sg15
I0
sg16
I0
sg17
(lp3223
sg32
I0
sba(i__main__
PhysicalMachine
p3224
(dp3225
g11
I0
sg12
S'39'
p3226
sg14
I01
sg15
I0
sg16
I0
sg17
(lp3227
sg32
I0
sba(i__main__
PhysicalMachine
p3228
(dp3229
g11
I0
sg12
S'40'
p3230
sg14
I01
sg15
I0
sg16
I0
sg17
(lp3231
sg32
I0
sba(i__main__
PhysicalMachine
p3232
(dp3233
g11
I0
sg12
S'41'
p3234
sg14
I01
sg15
I0
sg16
I0
sg17
(lp3235
sg32
I0
sba(i__main__
PhysicalMachine
p3236
(dp3237
g11
I0
sg12
S'42'
p3238
sg14
I01
sg15
I0
sg16
I0
sg17
(lp3239
sg32
I0
sba(i__main__
PhysicalMachine
p3240
(dp3241
g11
I0
sg12
S'43'
p3242
sg14
I01
sg15
I0
sg16
I0
sg17
(lp3243
sg32
I0
sba(i__main__
PhysicalMachine
p3244
(dp3245
g11
I0
sg12
S'44'
p3246
sg14
I01
sg15
I0
sg16
I0
sg17
(lp3247
sg32
I0
sba(i__main__
PhysicalMachine
p3248
(dp3249
g11
I0
sg12
S'45'
p3250
sg14
I01
sg15
I0
sg16
I0
sg17
(lp3251
sg32
I0
sba(i__main__
PhysicalMachine
p3252
(dp3253
g11
I0
sg12
S'46'
p3254
sg14
I01
sg15
I0
sg16
I0
sg17
(lp3255
sg32
I0
sba(i__main__
PhysicalMachine
p3256
(dp3257
g11
I0
sg12
S'47'
p3258
sg14
I01
sg15
I0
sg16
I0
sg17
(lp3259
sg32
I0
sba(i__main__
PhysicalMachine
p3260
(dp3261
g11
I0
sg12
S'48'
p3262
sg14
I01
sg15
I0
sg16
I0
sg17
(lp3263
sg32
I0
sba(i__main__
PhysicalMachine
p3264
(dp3265
g11
I0
sg12
S'49'
p3266
sg14
I01
sg15
I0
sg16
I0
sg17
(lp3267
sg32
I0
sba(i__main__
PhysicalMachine
p3268
(dp3269
g11
I0
sg12
S'50'
p3270
sg14
I01
sg15
I0
sg16
I0
sg17
(lp3271
sg32
I0
sba(i__main__
PhysicalMachine
p3272
(dp3273
g11
I0
sg12
S'51'
p3274
sg14
I01
sg15
I0
sg16
I0
sg17
(lp3275
sg32
I0
sba(i__main__
PhysicalMachine
p3276
(dp3277
g11
I0
sg12
S'52'
p3278
sg14
I01
sg15
I0
sg16
I0
sg17
(lp3279
sg32
I0
sba(i__main__
PhysicalMachine
p3280
(dp3281
g11
I0
sg12
S'53'
p3282
sg14
I01
sg15
I0
sg16
I0
sg17
(lp3283
sg32
I0
sba(i__main__
PhysicalMachine
p3284
(dp3285
g11
I0
sg12
S'54'
p3286
sg14
I01
sg15
I0
sg16
I0
sg17
(lp3287
sg32
I0
sba(i__main__
PhysicalMachine
p3288
(dp3289
g11
I0
sg12
S'55'
p3290
sg14
I01
sg15
I0
sg16
I0
sg17
(lp3291
sg32
I0
sba(i__main__
PhysicalMachine
p3292
(dp3293
g11
I0
sg12
S'56'
p3294
sg14
I01
sg15
I0
sg16
I0
sg17
(lp3295
sg32
I0
sba(i__main__
PhysicalMachine
p3296
(dp3297
g11
I0
sg12
S'57'
p3298
sg14
I01
sg15
I0
sg16
I0
sg17
(lp3299
sg32
I0
sba(i__main__
PhysicalMachine
p3300
(dp3301
g11
I0
sg12
S'58'
p3302
sg14
I01
sg15
I0
sg16
I0
sg17
(lp3303
sg32
I0
sba(i__main__
PhysicalMachine
p3304
(dp3305
g11
I0
sg12
S'59'
p3306
sg14
I01
sg15
I0
sg16
I0
sg17
(lp3307
sg32
I0
sba(i__main__
PhysicalMachine
p3308
(dp3309
g11
I0
sg12
S'60'
p3310
sg14
I01
sg15
I0
sg16
I0
sg17
(lp3311
sg32
I0
sba(i__main__
PhysicalMachine
p3312
(dp3313
g11
I0
sg12
S'61'
p3314
sg14
I01
sg15
I0
sg16
I0
sg17
(lp3315
sg32
I0
sba(i__main__
PhysicalMachine
p3316
(dp3317
g11
I0
sg12
S'62'
p3318
sg14
I01
sg15
I0
sg16
I0
sg17
(lp3319
sg32
I0
sba(i__main__
PhysicalMachine
p3320
(dp3321
g11
I0
sg12
S'63'
p3322
sg14
I01
sg15
I0
sg16
I0
sg17
(lp3323
sg32
I0
sba(i__main__
PhysicalMachine
p3324
(dp3325
g11
I0
sg12
S'64'
p3326
sg14
I01
sg15
I0
sg16
I0
sg17
(lp3327
sg32
I0
sba(i__main__
PhysicalMachine
p3328
(dp3329
g11
I0
sg12
S'65'
p3330
sg14
I01
sg15
I0
sg16
I0
sg17
(lp3331
sg32
I0
sba(i__main__
PhysicalMachine
p3332
(dp3333
g11
I0
sg12
S'66'
p3334
sg14
I01
sg15
I0
sg16
I0
sg17
(lp3335
sg32
I0
sba(i__main__
PhysicalMachine
p3336
(dp3337
g11
I0
sg12
S'67'
p3338
sg14
I01
sg15
I0
sg16
I0
sg17
(lp3339
sg32
I0
sba(i__main__
PhysicalMachine
p3340
(dp3341
g11
I0
sg12
S'68'
p3342
sg14
I01
sg15
I0
sg16
I0
sg17
(lp3343
sg32
I0
sba(i__main__
PhysicalMachine
p3344
(dp3345
g11
I0
sg12
S'69'
p3346
sg14
I01
sg15
I0
sg16
I0
sg17
(lp3347
sg32
I0
sba(i__main__
PhysicalMachine
p3348
(dp3349
g11
I0
sg12
S'70'
p3350
sg14
I01
sg15
I0
sg16
I0
sg17
(lp3351
sg32
I0
sba(i__main__
PhysicalMachine
p3352
(dp3353
g11
I0
sg12
S'71'
p3354
sg14
I01
sg15
I0
sg16
I0
sg17
(lp3355
sg32
I0
sbasbsg407
F2887.7200000000003
sg408
F1383314038.315983
sg409
I11
sg410
g411
sg1589
F2.719528913497925
sg1590
I64
sg1591
(i__main__
Manager
p3356
(dp3357
g1585
(i__main__
VMManager
p3358
(dp3359
g7
(lp3360
sbsg4
(lp3361
sg1598
I64
sg410
g411
sg1599
I72
sg413
g2681
sbsg1600
F1383314041.035512
sg1601
I64
sg1602
I0
sg1603
I72
sa(dp3362
g2
I58
sg3
I0
sg4
(i__main__
PMManager
p3363
(dp3364
g7
(lp3365
(i__main__
PhysicalMachine
p3366
(dp3367
g11
I87
sg12
S'0'
p3368
sg14
I00
sg15
I89
sg16
I89
sg17
(lp3369
g19
(g20
g21
(dp3370
tp3371
Rp3372
(dp3373
g12
S'3'
p3374
sg27
(dp3375
g29
I1
sg11
I14
sg30
I1
sg31
I1
sg15
I16
sg16
I15
sg32
I16
ssbag19
(g20
g21
(dp3376
tp3377
Rp3378
(dp3379
g12
S'9'
p3380
sg27
(dp3381
g29
I1
sg11
I14
sg30
I1
sg31
I1
sg15
I16
sg16
I15
sg32
I16
ssbag19
(g20
g21
(dp3382
tp3383
Rp3384
(dp3385
g12
S'11'
p3386
sg27
(dp3387
g29
I1
sg11
I15
sg30
I1
sg31
I1
sg15
I14
sg16
I13
sg32
I15
ssbag19
(g20
g21
(dp3388
tp3389
Rp3390
(dp3391
g12
S'16'
p3392
sg27
(dp3393
g29
I1
sg11
I15
sg30
I1
sg31
I1
sg15
I15
sg16
I15
sg32
I14
ssbag19
(g20
g21
(dp3394
tp3395
Rp3396
(dp3397
g12
S'46'
p3398
sg27
(dp3399
g29
I1
sg11
I15
sg30
I1
sg31
I1
sg15
I13
sg16
I16
sg32
I15
ssbag19
(g20
g21
(dp3400
tp3401
Rp3402
(dp3403
g12
S'61'
p3404
sg27
(dp3405
g29
I1
sg11
I14
sg30
I1
sg31
I1
sg15
I15
sg16
I15
sg32
I16
ssbasg32
I92
sba(i__main__
PhysicalMachine
p3406
(dp3407
g11
I93
sg12
S'1'
p3408
sg14
I00
sg15
I91
sg16
I93
sg17
(lp3409
g19
(g20
g21
(dp3410
tp3411
Rp3412
(dp3413
g12
S'8'
p3414
sg27
(dp3415
g29
I1
sg11
I15
sg30
I1
sg31
I1
sg15
I16
sg16
I16
sg32
I15
ssbag19
(g20
g21
(dp3416
tp3417
Rp3418
(dp3419
g12
S'48'
p3420
sg27
(dp3421
g29
I1
sg11
I16
sg30
I1
sg31
I1
sg15
I14
sg16
I16
sg32
I16
ssbag19
(g20
g21
(dp3422
tp3423
Rp3424
(dp3425
g12
S'52'
p3426
sg27
(dp3427
g29
I1
sg11
I15
sg30
I1
sg31
I1
sg15
I15
sg16
I14
sg32
I16
ssbag19
(g20
g21
(dp3428
tp3429
Rp3430
(dp3431
g12
S'60'
p3432
sg27
(dp3433
g29
I1
sg11
I17
sg30
I1
sg31
I1
sg15
I15
sg16
I16
sg32
I16
ssbag19
(g20
g21
(dp3434
tp3435
Rp3436
(dp3437
g12
S'67'
p3438
sg27
(dp3439
g29
I1
sg11
I15
sg30
I1
sg31
I1
sg15
I16
sg16
I16
sg32
I12
ssbag19
(g20
g21
(dp3440
tp3441
Rp3442
(dp3443
g12
S'69'
p3444
sg27
(dp3445
g29
I1
sg11
I15
sg30
I1
sg31
I1
sg15
I15
sg16
I15
sg32
I16
ssbasg32
I91
sba(i__main__
PhysicalMachine
p3446
(dp3447
g11
I89
sg12
S'2'
p3448
sg14
I00
sg15
I94
sg16
I93
sg17
(lp3449
g19
(g20
g21
(dp3450
tp3451
Rp3452
(dp3453
g12
S'21'
p3454
sg27
(dp3455
g29
I1
sg11
I16
sg30
I1
sg31
I1
sg15
I15
sg16
I16
sg32
I15
ssbag19
(g20
g21
(dp3456
tp3457
Rp3458
(dp3459
g12
S'30'
p3460
sg27
(dp3461
g29
I1
sg11
I14
sg30
I1
sg31
I1
sg15
I17
sg16
I14
sg32
I15
ssbag19
(g20
g21
(dp3462
tp3463
Rp3464
(dp3465
g12
S'32'
p3466
sg27
(dp3467
g29
I1
sg11
I15
sg30
I1
sg31
I1
sg15
I15
sg16
I17
sg32
I15
ssbag19
(g20
g21
(dp3468
tp3469
Rp3470
(dp3471
g12
S'35'
p3472
sg27
(dp3473
g29
I1
sg11
I14
sg30
I1
sg31
I1
sg15
I15
sg16
I14
sg32
I17
ssbag19
(g20
g21
(dp3474
tp3475
Rp3476
(dp3477
g12
S'62'
p3478
sg27
(dp3479
g29
I1
sg11
I15
sg30
I1
sg31
I1
sg15
I16
sg16
I17
sg32
I14
ssbag19
(g20
g21
(dp3480
tp3481
Rp3482
(dp3483
g12
S'79'
p3484
sg27
(dp3485
g29
I1
sg11
I15
sg30
I1
sg31
I1
sg15
I16
sg16
I15
sg32
I14
ssbasg32
I90
sba(i__main__
PhysicalMachine
p3486
(dp3487
g11
I94
sg12
S'3'
p3488
sg14
I00
sg15
I89
sg16
I88
sg17
(lp3489
g19
(g20
g21
(dp3490
tp3491
Rp3492
(dp3493
g12
S'4'
p3494
sg27
(dp3495
g29
I1
sg11
I15
sg30
I1
sg31
I1
sg15
I14
sg16
I13
sg32
I16
ssbag19
(g20
g21
(dp3496
tp3497
Rp3498
(dp3499
g12
S'5'
p3500
sg27
(dp3501
g29
I1
sg11
I16
sg30
I1
sg31
I1
sg15
I16
sg16
I16
sg32
I16
ssbag19
(g20
g21
(dp3502
tp3503
Rp3504
(dp3505
g12
S'27'
p3506
sg27
(dp3507
g29
I1
sg11
I15
sg30
I1
sg31
I1
sg15
I16
sg16
I15
sg32
I14
ssbag19
(g20
g21
(dp3508
tp3509
Rp3510
(dp3511
g12
S'47'
p3512
sg27
(dp3513
g29
I1
sg11
I17
sg30
I1
sg31
I1
sg15
I13
sg16
I16
sg32
I16
ssbag19
(g20
g21
(dp3514
tp3515
Rp3516
(dp3517
g12
S'57'
p3518
sg27
(dp3519
g29
I1
sg11
I15
sg30
I1
sg31
I1
sg15
I15
sg16
I14
sg32
I13
ssbag19
(g20
g21
(dp3520
tp3521
Rp3522
(dp3523
g12
S'75'
p3524
sg27
(dp3525
g29
I1
sg11
I16
sg30
I1
sg31
I1
sg15
I15
sg16
I14
sg32
I16
ssbasg32
I91
sba(i__main__
PhysicalMachine
p3526
(dp3527
g11
I95
sg12
S'4'
p3528
sg14
I00
sg15
I93
sg16
I92
sg17
(lp3529
g19
(g20
g21
(dp3530
tp3531
Rp3532
(dp3533
g12
S'17'
p3534
sg27
(dp3535
g29
I1
sg11
I16
sg30
I1
sg31
I1
sg15
I15
sg16
I14
sg32
I14
ssbag19
(g20
g21
(dp3536
tp3537
Rp3538
(dp3539
g12
S'34'
p3540
sg27
(dp3541
g29
I1
sg11
I15
sg30
I1
sg31
I1
sg15
I16
sg16
I14
sg32
I15
ssbag19
(g20
g21
(dp3542
tp3543
Rp3544
(dp3545
g12
S'42'
p3546
sg27
(dp3547
g29
I1
sg11
I18
sg30
I1
sg31
I1
sg15
I16
sg16
I16
sg32
I16
ssbag19
(g20
g21
(dp3548
tp3549
Rp3550
(dp3551
g12
S'58'
p3552
sg27
(dp3553
g29
I1
sg11
I16
sg30
I1
sg31
I1
sg15
I15
sg16
I17
sg32
I17
ssbag19
(g20
g21
(dp3554
tp3555
Rp3556
(dp3557
g12
S'64'
p3558
sg27
(dp3559
g29
I1
sg11
I15
sg30
I1
sg31
I1
sg15
I16
sg16
I16
sg32
I13
ssbag19
(g20
g21
(dp3560
tp3561
Rp3562
(dp3563
g12
S'66'
p3564
sg27
(dp3565
g29
I1
sg11
I15
sg30
I1
sg31
I1
sg15
I15
sg16
I15
sg32
I15
ssbasg32
I90
sba(i__main__
PhysicalMachine
p3566
(dp3567
g11
I93
sg12
S'5'
p3568
sg14
I00
sg15
I91
sg16
I90
sg17
(lp3569
g19
(g20
g21
(dp3570
tp3571
Rp3572
(dp3573
g12
S'0'
p3574
sg27
(dp3575
g29
I1
sg11
I16
sg30
I1
sg31
I1
sg15
I15
sg16
I15
sg32
I14
ssbag19
(g20
g21
(dp3576
tp3577
Rp3578
(dp3579
g12
S'14'
p3580
sg27
(dp3581
g29
I1
sg11
I14
sg30
I1
sg31
I1
sg15
I15
sg16
I15
sg32
I17
ssbag19
(g20
g21
(dp3582
tp3583
Rp3584
(dp3585
g12
S'23'
p3586
sg27
(dp3587
g29
I1
sg11
I16
sg30
I1
sg31
I1
sg15
I14
sg16
I15
sg32
I15
ssbag19
(g20
g21
(dp3588
tp3589
Rp3590
(dp3591
g12
S'41'
p3592
sg27
(dp3593
g29
I1
sg11
I16
sg30
I1
sg31
I1
sg15
I15
sg16
I17
sg32
I13
ssbag19
(g20
g21
(dp3594
tp3595
Rp3596
(dp3597
g12
S'45'
p3598
sg27
(dp3599
g29
I1
sg11
I15
sg30
I1
sg31
I1
sg15
I16
sg16
I14
sg32
I16
ssbag19
(g20
g21
(dp3600
tp3601
Rp3602
(dp3603
g12
S'49'
p3604
sg27
(dp3605
g29
I1
sg11
I16
sg30
I1
sg31
I1
sg15
I16
sg16
I14
sg32
I16
ssbasg32
I91
sba(i__main__
PhysicalMachine
p3606
(dp3607
g11
I93
sg12
S'6'
p3608
sg14
I00
sg15
I92
sg16
I92
sg17
(lp3609
g19
(g20
g21
(dp3610
tp3611
Rp3612
(dp3613
g12
S'7'
p3614
sg27
(dp3615
g29
I1
sg11
I15
sg30
I1
sg31
I1
sg15
I14
sg16
I16
sg32
I15
ssbag19
(g20
g21
(dp3616
tp3617
Rp3618
(dp3619
g12
S'12'
p3620
sg27
(dp3621
g29
I1
sg11
I16
sg30
I1
sg31
I1
sg15
I14
sg16
I16
sg32
I16
ssbag19
(g20
g21
(dp3622
tp3623
Rp3624
(dp3625
g12
S'56'
p3626
sg27
(dp3627
g29
I1
sg11
I16
sg30
I1
sg31
I1
sg15
I17
sg16
I14
sg32
I13
ssbag19
(g20
g21
(dp3628
tp3629
Rp3630
(dp3631
g12
S'65'
p3632
sg27
(dp3633
g29
I1
sg11
I16
sg30
I1
sg31
I1
sg15
I17
sg16
I15
sg32
I16
ssbag19
(g20
g21
(dp3634
tp3635
Rp3636
(dp3637
g12
S'72'
p3638
sg27
(dp3639
g29
I1
sg11
I14
sg30
I1
sg31
I1
sg15
I15
sg16
I16
sg32
I15
ssbag19
(g20
g21
(dp3640
tp3641
Rp3642
(dp3643
g12
S'78'
p3644
sg27
(dp3645
g29
I1
sg11
I16
sg30
I1
sg31
I1
sg15
I15
sg16
I15
sg32
I15
ssbasg32
I90
sba(i__main__
PhysicalMachine
p3646
(dp3647
g11
I87
sg12
S'7'
p3648
sg14
I00
sg15
I89
sg16
I92
sg17
(lp3649
g19
(g20
g21
(dp3650
tp3651
Rp3652
(dp3653
g12
S'6'
p3654
sg27
(dp3655
g29
I1
sg11
I15
sg30
I1
sg31
I1
sg15
I15
sg16
I15
sg32
I16
ssbag19
(g20
g21
(dp3656
tp3657
Rp3658
(dp3659
g12
S'22'
p3660
sg27
(dp3661
g29
I1
sg11
I13
sg30
I1
sg31
I1
sg15
I16
sg16
I15
sg32
I15
ssbag19
(g20
g21
(dp3662
tp3663
Rp3664
(dp3665
g12
S'29'
p3666
sg27
(dp3667
g29
I1
sg11
I15
sg30
I1
sg31
I1
sg15
I16
sg16
I16
sg32
I15
ssbag19
(g20
g21
(dp3668
tp3669
Rp3670
(dp3671
g12
S'36'
p3672
sg27
(dp3673
g29
I1
sg11
I15
sg30
I1
sg31
I1
sg15
I15
sg16
I15
sg32
I15
ssbag19
(g20
g21
(dp3674
tp3675
Rp3676
(dp3677
g12
S'51'
p3678
sg27
(dp3679
g29
I1
sg11
I14
sg30
I1
sg31
I1
sg15
I13
sg16
I15
sg32
I16
ssbag19
(g20
g21
(dp3680
tp3681
Rp3682
(dp3683
g12
S'73'
p3684
sg27
(dp3685
g29
I1
sg11
I15
sg30
I1
sg31
I1
sg15
I14
sg16
I16
sg32
I16
ssbasg32
I93
sba(i__main__
PhysicalMachine
p3686
(dp3687
g11
I92
sg12
S'8'
p3688
sg14
I00
sg15
I88
sg16
I88
sg17
(lp3689
g19
(g20
g21
(dp3690
tp3691
Rp3692
(dp3693
g12
S'1'
p3694
sg27
(dp3695
g29
I1
sg11
I16
sg30
I1
sg31
I1
sg15
I16
sg16
I14
sg32
I15
ssbag19
(g20
g21
(dp3696
tp3697
Rp3698
(dp3699
g12
S'25'
p3700
sg27
(dp3701
g29
I1
sg11
I16
sg30
I1
sg31
I1
sg15
I16
sg16
I14
sg32
I15
ssbag19
(g20
g21
(dp3702
tp3703
Rp3704
(dp3705
g12
S'31'
p3706
sg27
(dp3707
g29
I1
sg11
I12
sg30
I1
sg31
I1
sg15
I14
sg16
I15
sg32
I17
ssbag19
(g20
g21
(dp3708
tp3709
Rp3710
(dp3711
g12
S'39'
p3712
sg27
(dp3713
g29
I1
sg11
I16
sg30
I1
sg31
I1
sg15
I14
sg16
I16
sg32
I13
ssbag19
(g20
g21
(dp3714
tp3715
Rp3716
(dp3717
g12
S'50'
p3718
sg27
(dp3719
g29
I1
sg11
I16
sg30
I1
sg31
I1
sg15
I15
sg16
I14
sg32
I15
ssbag19
(g20
g21
(dp3720
tp3721
Rp3722
(dp3723
g12
S'76'
p3724
sg27
(dp3725
g29
I1
sg11
I16
sg30
I1
sg31
I1
sg15
I13
sg16
I15
sg32
I14
ssbasg32
I89
sba(i__main__
PhysicalMachine
p3726
(dp3727
g11
I94
sg12
S'9'
p3728
sg14
I00
sg15
I98
sg16
I91
sg17
(lp3729
g19
(g20
g21
(dp3730
tp3731
Rp3732
(dp3733
g12
S'13'
p3734
sg27
(dp3735
g29
I1
sg11
I16
sg30
I1
sg31
I1
sg15
I17
sg16
I14
sg32
I15
ssbag19
(g20
g21
(dp3736
tp3737
Rp3738
(dp3739
g12
S'18'
p3740
sg27
(dp3741
g29
I1
sg11
I16
sg30
I1
sg31
I1
sg15
I17
sg16
I14
sg32
I16
ssbag19
(g20
g21
(dp3742
tp3743
Rp3744
(dp3745
g12
S'37'
p3746
sg27
(dp3747
g29
I1
sg11
I15
sg30
I1
sg31
I1
sg15
I17
sg16
I17
sg32
I15
ssbag19
(g20
g21
(dp3748
tp3749
Rp3750
(dp3751
g12
S'43'
p3752
sg27
(dp3753
g29
I1
sg11
I15
sg30
I1
sg31
I1
sg15
I15
sg16
I15
sg32
I15
ssbag19
(g20
g21
(dp3754
tp3755
Rp3756
(dp3757
g12
S'55'
p3758
sg27
(dp3759
g29
I1
sg11
I16
sg30
I1
sg31
I1
sg15
I16
sg16
I15
sg32
I15
ssbag19
(g20
g21
(dp3760
tp3761
Rp3762
(dp3763
g12
S'77'
p3764
sg27
(dp3765
g29
I1
sg11
I16
sg30
I1
sg31
I1
sg15
I16
sg16
I16
sg32
I16
ssbasg32
I92
sba(i__main__
PhysicalMachine
p3766
(dp3767
g11
I96
sg12
S'10'
p3768
sg14
I00
sg15
I87
sg16
I93
sg17
(lp3769
g19
(g20
g21
(dp3770
tp3771
Rp3772
(dp3773
g12
S'15'
p3774
sg27
(dp3775
g29
I1
sg11
I16
sg30
I1
sg31
I1
sg15
I13
sg16
I15
sg32
I15
ssbag19
(g20
g21
(dp3776
tp3777
Rp3778
(dp3779
g12
S'54'
p3780
sg27
(dp3781
g29
I1
sg11
I16
sg30
I1
sg31
I1
sg15
I14
sg16
I16
sg32
I15
ssbag19
(g20
g21
(dp3782
tp3783
Rp3784
(dp3785
g12
S'59'
p3786
sg27
(dp3787
g29
I1
sg11
I16
sg30
I1
sg31
I1
sg15
I16
sg16
I15
sg32
I16
ssbag19
(g20
g21
(dp3788
tp3789
Rp3790
(dp3791
g12
S'63'
p3792
sg27
(dp3793
g29
I1
sg11
I16
sg30
I1
sg31
I1
sg15
I14
sg16
I16
sg32
I16
ssbag19
(g20
g21
(dp3794
tp3795
Rp3796
(dp3797
g12
S'71'
p3798
sg27
(dp3799
g29
I1
sg11
I16
sg30
I1
sg31
I1
sg15
I15
sg16
I16
sg32
I14
ssbag19
(g20
g21
(dp3800
tp3801
Rp3802
(dp3803
g12
S'74'
p3804
sg27
(dp3805
g29
I1
sg11
I16
sg30
I1
sg31
I1
sg15
I15
sg16
I15
sg32
I16
ssbasg32
I92
sba(i__main__
PhysicalMachine
p3806
(dp3807
g11
I89
sg12
S'11'
p3808
sg14
I00
sg15
I89
sg16
I95
sg17
(lp3809
g19
(g20
g21
(dp3810
tp3811
Rp3812
(dp3813
g12
S'19'
p3814
sg27
(dp3815
g29
I1
sg11
I15
sg30
I1
sg31
I1
sg15
I16
sg16
I16
sg32
I15
ssbag19
(g20
g21
(dp3816
tp3817
Rp3818
(dp3819
g12
S'24'
p3820
sg27
(dp3821
g29
I1
sg11
I15
sg30
I1
sg31
I1
sg15
I13
sg16
I16
sg32
I16
ssbag19
(g20
g21
(dp3822
tp3823
Rp3824
(dp3825
g12
S'38'
p3826
sg27
(dp3827
g29
I1
sg11
I16
sg30
I1
sg31
I1
sg15
I14
sg16
I16
sg32
I15
ssbag19
(g20
g21
(dp3828
tp3829
Rp3830
(dp3831
g12
S'40'
p3832
sg27
(dp3833
g29
I1
sg11
I15
sg30
I1
sg31
I1
sg15
I16
sg16
I16
sg32
I16
ssbag19
(g20
g21
(dp3834
tp3835
Rp3836
(dp3837
g12
S'44'
p3838
sg27
(dp3839
g29
I1
sg11
I15
sg30
I1
sg31
I1
sg15
I14
sg16
I16
sg32
I13
ssbag19
(g20
g21
(dp3840
tp3841
Rp3842
(dp3843
g12
S'53'
p3844
sg27
(dp3845
g29
I1
sg11
I13
sg30
I1
sg31
I1
sg15
I16
sg16
I15
sg32
I16
ssbasg32
I91
sba(i__main__
PhysicalMachine
p3846
(dp3847
g11
I89
sg12
S'12'
p3848
sg14
I00
sg15
I91
sg16
I93
sg17
(lp3849
g19
(g20
g21
(dp3850
tp3851
Rp3852
(dp3853
g12
S'2'
p3854
sg27
(dp3855
g29
I1
sg11
I15
sg30
I1
sg31
I1
sg15
I16
sg16
I15
sg32
I16
ssbag19
(g20
g21
(dp3856
tp3857
Rp3858
(dp3859
g12
S'10'
p3860
sg27
(dp3861
g29
I1
sg11
I15
sg30
I1
sg31
I1
sg15
I15
sg16
I16
sg32
I15
ssbag19
(g20
g21
(dp3862
tp3863
Rp3864
(dp3865
g12
S'20'
p3866
sg27
(dp3867
g29
I1
sg11
I16
sg30
I1
sg31
I1
sg15
I15
sg16
I16
sg32
I16
ssbag19
(g20
g21
(dp3868
tp3869
Rp3870
(dp3871
g12
S'28'
p3872
sg27
(dp3873
g29
I1
sg11
I15
sg30
I1
sg31
I1
sg15
I15
sg16
I15
sg32
I15
ssbag19
(g20
g21
(dp3874
tp3875
Rp3876
(dp3877
g12
S'68'
p3878
sg27
(dp3879
g29
I1
sg11
I15
sg30
I1
sg31
I1
sg15
I13
sg16
I15
sg32
I16
ssbag19
(g20
g21
(dp3880
tp3881
Rp3882
(dp3883
g12
S'70'
p3884
sg27
(dp3885
g29
I1
sg11
I13
sg30
I1
sg31
I1
sg15
I17
sg16
I16
sg32
I14
ssbasg32
I92
sba(i__main__
PhysicalMachine
p3886
(dp3887
g11
I30
sg12
S'13'
p3888
sg14
I00
sg15
I30
sg16
I32
sg17
(lp3889
g19
(g20
g21
(dp3890
tp3891
Rp3892
(dp3893
g12
S'26'
p3894
sg27
(dp3895
g29
I1
sg11
I15
sg30
I1
sg31
I1
sg15
I15
sg16
I16
sg32
I16
ssbag19
(g20
g21
(dp3896
tp3897
Rp3898
(dp3899
g12
S'33'
p3900
sg27
(dp3901
g29
I1
sg11
I15
sg30
I1
sg31
I1
sg15
I15
sg16
I16
sg32
I15
ssbasg32
I31
sba(i__main__
PhysicalMachine
p3902
(dp3903
g11
I0
sg12
S'14'
p3904
sg14
I01
sg15
I0
sg16
I0
sg17
(lp3905
sg32
I0
sba(i__main__
PhysicalMachine
p3906
(dp3907
g11
I0
sg12
S'15'
p3908
sg14
I01
sg15
I0
sg16
I0
sg17
(lp3909
sg32
I0
sba(i__main__
PhysicalMachine
p3910
(dp3911
g11
I0
sg12
S'16'
p3912
sg14
I01
sg15
I0
sg16
I0
sg17
(lp3913
sg32
I0
sba(i__main__
PhysicalMachine
p3914
(dp3915
g11
I0
sg12
S'17'
p3916
sg14
I01
sg15
I0
sg16
I0
sg17
(lp3917
sg32
I0
sba(i__main__
PhysicalMachine
p3918
(dp3919
g11
I0
sg12
S'18'
p3920
sg14
I01
sg15
I0
sg16
I0
sg17
(lp3921
sg32
I0
sba(i__main__
PhysicalMachine
p3922
(dp3923
g11
I0
sg12
S'19'
p3924
sg14
I01
sg15
I0
sg16
I0
sg17
(lp3925
sg32
I0
sba(i__main__
PhysicalMachine
p3926
(dp3927
g11
I0
sg12
S'20'
p3928
sg14
I01
sg15
I0
sg16
I0
sg17
(lp3929
sg32
I0
sba(i__main__
PhysicalMachine
p3930
(dp3931
g11
I0
sg12
S'21'
p3932
sg14
I01
sg15
I0
sg16
I0
sg17
(lp3933
sg32
I0
sba(i__main__
PhysicalMachine
p3934
(dp3935
g11
I0
sg12
S'22'
p3936
sg14
I01
sg15
I0
sg16
I0
sg17
(lp3937
sg32
I0
sba(i__main__
PhysicalMachine
p3938
(dp3939
g11
I0
sg12
S'23'
p3940
sg14
I01
sg15
I0
sg16
I0
sg17
(lp3941
sg32
I0
sba(i__main__
PhysicalMachine
p3942
(dp3943
g11
I0
sg12
S'24'
p3944
sg14
I01
sg15
I0
sg16
I0
sg17
(lp3945
sg32
I0
sba(i__main__
PhysicalMachine
p3946
(dp3947
g11
I0
sg12
S'25'
p3948
sg14
I01
sg15
I0
sg16
I0
sg17
(lp3949
sg32
I0
sba(i__main__
PhysicalMachine
p3950
(dp3951
g11
I0
sg12
S'26'
p3952
sg14
I01
sg15
I0
sg16
I0
sg17
(lp3953
sg32
I0
sba(i__main__
PhysicalMachine
p3954
(dp3955
g11
I0
sg12
S'27'
p3956
sg14
I01
sg15
I0
sg16
I0
sg17
(lp3957
sg32
I0
sba(i__main__
PhysicalMachine
p3958
(dp3959
g11
I0
sg12
S'28'
p3960
sg14
I01
sg15
I0
sg16
I0
sg17
(lp3961
sg32
I0
sba(i__main__
PhysicalMachine
p3962
(dp3963
g11
I0
sg12
S'29'
p3964
sg14
I01
sg15
I0
sg16
I0
sg17
(lp3965
sg32
I0
sba(i__main__
PhysicalMachine
p3966
(dp3967
g11
I0
sg12
S'30'
p3968
sg14
I01
sg15
I0
sg16
I0
sg17
(lp3969
sg32
I0
sba(i__main__
PhysicalMachine
p3970
(dp3971
g11
I0
sg12
S'31'
p3972
sg14
I01
sg15
I0
sg16
I0
sg17
(lp3973
sg32
I0
sba(i__main__
PhysicalMachine
p3974
(dp3975
g11
I0
sg12
S'32'
p3976
sg14
I01
sg15
I0
sg16
I0
sg17
(lp3977
sg32
I0
sba(i__main__
PhysicalMachine
p3978
(dp3979
g11
I0
sg12
S'33'
p3980
sg14
I01
sg15
I0
sg16
I0
sg17
(lp3981
sg32
I0
sba(i__main__
PhysicalMachine
p3982
(dp3983
g11
I0
sg12
S'34'
p3984
sg14
I01
sg15
I0
sg16
I0
sg17
(lp3985
sg32
I0
sba(i__main__
PhysicalMachine
p3986
(dp3987
g11
I0
sg12
S'35'
p3988
sg14
I01
sg15
I0
sg16
I0
sg17
(lp3989
sg32
I0
sba(i__main__
PhysicalMachine
p3990
(dp3991
g11
I0
sg12
S'36'
p3992
sg14
I01
sg15
I0
sg16
I0
sg17
(lp3993
sg32
I0
sba(i__main__
PhysicalMachine
p3994
(dp3995
g11
I0
sg12
S'37'
p3996
sg14
I01
sg15
I0
sg16
I0
sg17
(lp3997
sg32
I0
sba(i__main__
PhysicalMachine
p3998
(dp3999
g11
I0
sg12
S'38'
p4000
sg14
I01
sg15
I0
sg16
I0
sg17
(lp4001
sg32
I0
sba(i__main__
PhysicalMachine
p4002
(dp4003
g11
I0
sg12
S'39'
p4004
sg14
I01
sg15
I0
sg16
I0
sg17
(lp4005
sg32
I0
sba(i__main__
PhysicalMachine
p4006
(dp4007
g11
I0
sg12
S'40'
p4008
sg14
I01
sg15
I0
sg16
I0
sg17
(lp4009
sg32
I0
sba(i__main__
PhysicalMachine
p4010
(dp4011
g11
I0
sg12
S'41'
p4012
sg14
I01
sg15
I0
sg16
I0
sg17
(lp4013
sg32
I0
sba(i__main__
PhysicalMachine
p4014
(dp4015
g11
I0
sg12
S'42'
p4016
sg14
I01
sg15
I0
sg16
I0
sg17
(lp4017
sg32
I0
sba(i__main__
PhysicalMachine
p4018
(dp4019
g11
I0
sg12
S'43'
p4020
sg14
I01
sg15
I0
sg16
I0
sg17
(lp4021
sg32
I0
sba(i__main__
PhysicalMachine
p4022
(dp4023
g11
I0
sg12
S'44'
p4024
sg14
I01
sg15
I0
sg16
I0
sg17
(lp4025
sg32
I0
sba(i__main__
PhysicalMachine
p4026
(dp4027
g11
I0
sg12
S'45'
p4028
sg14
I01
sg15
I0
sg16
I0
sg17
(lp4029
sg32
I0
sba(i__main__
PhysicalMachine
p4030
(dp4031
g11
I0
sg12
S'46'
p4032
sg14
I01
sg15
I0
sg16
I0
sg17
(lp4033
sg32
I0
sba(i__main__
PhysicalMachine
p4034
(dp4035
g11
I0
sg12
S'47'
p4036
sg14
I01
sg15
I0
sg16
I0
sg17
(lp4037
sg32
I0
sba(i__main__
PhysicalMachine
p4038
(dp4039
g11
I0
sg12
S'48'
p4040
sg14
I01
sg15
I0
sg16
I0
sg17
(lp4041
sg32
I0
sba(i__main__
PhysicalMachine
p4042
(dp4043
g11
I0
sg12
S'49'
p4044
sg14
I01
sg15
I0
sg16
I0
sg17
(lp4045
sg32
I0
sba(i__main__
PhysicalMachine
p4046
(dp4047
g11
I0
sg12
S'50'
p4048
sg14
I01
sg15
I0
sg16
I0
sg17
(lp4049
sg32
I0
sba(i__main__
PhysicalMachine
p4050
(dp4051
g11
I0
sg12
S'51'
p4052
sg14
I01
sg15
I0
sg16
I0
sg17
(lp4053
sg32
I0
sba(i__main__
PhysicalMachine
p4054
(dp4055
g11
I0
sg12
S'52'
p4056
sg14
I01
sg15
I0
sg16
I0
sg17
(lp4057
sg32
I0
sba(i__main__
PhysicalMachine
p4058
(dp4059
g11
I0
sg12
S'53'
p4060
sg14
I01
sg15
I0
sg16
I0
sg17
(lp4061
sg32
I0
sba(i__main__
PhysicalMachine
p4062
(dp4063
g11
I0
sg12
S'54'
p4064
sg14
I01
sg15
I0
sg16
I0
sg17
(lp4065
sg32
I0
sba(i__main__
PhysicalMachine
p4066
(dp4067
g11
I0
sg12
S'55'
p4068
sg14
I01
sg15
I0
sg16
I0
sg17
(lp4069
sg32
I0
sba(i__main__
PhysicalMachine
p4070
(dp4071
g11
I0
sg12
S'56'
p4072
sg14
I01
sg15
I0
sg16
I0
sg17
(lp4073
sg32
I0
sba(i__main__
PhysicalMachine
p4074
(dp4075
g11
I0
sg12
S'57'
p4076
sg14
I01
sg15
I0
sg16
I0
sg17
(lp4077
sg32
I0
sba(i__main__
PhysicalMachine
p4078
(dp4079
g11
I0
sg12
S'58'
p4080
sg14
I01
sg15
I0
sg16
I0
sg17
(lp4081
sg32
I0
sba(i__main__
PhysicalMachine
p4082
(dp4083
g11
I0
sg12
S'59'
p4084
sg14
I01
sg15
I0
sg16
I0
sg17
(lp4085
sg32
I0
sba(i__main__
PhysicalMachine
p4086
(dp4087
g11
I0
sg12
S'60'
p4088
sg14
I01
sg15
I0
sg16
I0
sg17
(lp4089
sg32
I0
sba(i__main__
PhysicalMachine
p4090
(dp4091
g11
I0
sg12
S'61'
p4092
sg14
I01
sg15
I0
sg16
I0
sg17
(lp4093
sg32
I0
sba(i__main__
PhysicalMachine
p4094
(dp4095
g11
I0
sg12
S'62'
p4096
sg14
I01
sg15
I0
sg16
I0
sg17
(lp4097
sg32
I0
sba(i__main__
PhysicalMachine
p4098
(dp4099
g11
I0
sg12
S'63'
p4100
sg14
I01
sg15
I0
sg16
I0
sg17
(lp4101
sg32
I0
sba(i__main__
PhysicalMachine
p4102
(dp4103
g11
I0
sg12
S'64'
p4104
sg14
I01
sg15
I0
sg16
I0
sg17
(lp4105
sg32
I0
sba(i__main__
PhysicalMachine
p4106
(dp4107
g11
I0
sg12
S'65'
p4108
sg14
I01
sg15
I0
sg16
I0
sg17
(lp4109
sg32
I0
sba(i__main__
PhysicalMachine
p4110
(dp4111
g11
I0
sg12
S'66'
p4112
sg14
I01
sg15
I0
sg16
I0
sg17
(lp4113
sg32
I0
sba(i__main__
PhysicalMachine
p4114
(dp4115
g11
I0
sg12
S'67'
p4116
sg14
I01
sg15
I0
sg16
I0
sg17
(lp4117
sg32
I0
sba(i__main__
PhysicalMachine
p4118
(dp4119
g11
I0
sg12
S'68'
p4120
sg14
I01
sg15
I0
sg16
I0
sg17
(lp4121
sg32
I0
sba(i__main__
PhysicalMachine
p4122
(dp4123
g11
I0
sg12
S'69'
p4124
sg14
I01
sg15
I0
sg16
I0
sg17
(lp4125
sg32
I0
sba(i__main__
PhysicalMachine
p4126
(dp4127
g11
I0
sg12
S'70'
p4128
sg14
I01
sg15
I0
sg16
I0
sg17
(lp4129
sg32
I0
sba(i__main__
PhysicalMachine
p4130
(dp4131
g11
I0
sg12
S'71'
p4132
sg14
I01
sg15
I0
sg16
I0
sg17
(lp4133
sg32
I0
sbasbsg407
F3538.3999999999996
sg408
F1383314041.035532
sg409
I14
sg410
g411
sg1589
F3.8203580379486084
sg1590
I80
sg1591
(i__main__
Manager
p4134
(dp4135
g1585
(i__main__
VMManager
p4136
(dp4137
g7
(lp4138
sbsg4
(lp4139
sg1598
I80
sg410
g411
sg1599
I72
sg413
g3363
sbsg1600
F1383314044.85589
sg1601
I80
sg1602
I0
sg1603
I72
sa(dp4140
g2
I56
sg3
I0
sg4
(i__main__
PMManager
p4141
(dp4142
g7
(lp4143
(i__main__
PhysicalMachine
p4144
(dp4145
g11
I89
sg12
S'0'
p4146
sg14
I00
sg15
I94
sg16
I88
sg17
(lp4147
g19
(g20
g21
(dp4148
tp4149
Rp4150
(dp4151
g12
S'13'
p4152
sg27
(dp4153
g29
I1
sg11
I16
sg30
I1
sg31
I1
sg15
I17
sg16
I14
sg32
I15
ssbag19
(g20
g21
(dp4154
tp4155
Rp4156
(dp4157
g12
S'35'
p4158
sg27
(dp4159
g29
I1
sg11
I14
sg30
I1
sg31
I1
sg15
I15
sg16
I14
sg32
I17
ssbag19
(g20
g21
(dp4160
tp4161
Rp4162
(dp4163
g12
S'60'
p4164
sg27
(dp4165
g29
I1
sg11
I17
sg30
I1
sg31
I1
sg15
I15
sg16
I16
sg32
I16
ssbag19
(g20
g21
(dp4166
tp4167
Rp4168
(dp4169
g12
S'70'
p4170
sg27
(dp4171
g29
I1
sg11
I13
sg30
I1
sg31
I1
sg15
I17
sg16
I16
sg32
I14
ssbag19
(g20
g21
(dp4172
tp4173
Rp4174
(dp4175
g12
S'88'
p4176
sg27
(dp4177
g29
I1
sg11
I14
sg30
I1
sg31
I1
sg15
I15
sg16
I15
sg32
I15
ssbag19
(g20
g21
(dp4178
tp4179
Rp4180
(dp4181
g12
S'94'
p4182
sg27
(dp4183
g29
I1
sg11
I15
sg30
I1
sg31
I1
sg15
I15
sg16
I13
sg32
I16
ssbasg32
I93
sba(i__main__
PhysicalMachine
p4184
(dp4185
g11
I91
sg12
S'1'
p4186
sg14
I00
sg15
I93
sg16
I94
sg17
(lp4187
g19
(g20
g21
(dp4188
tp4189
Rp4190
(dp4191
g12
S'21'
p4192
sg27
(dp4193
g29
I1
sg11
I16
sg30
I1
sg31
I1
sg15
I15
sg16
I16
sg32
I15
ssbag19
(g20
g21
(dp4194
tp4195
Rp4196
(dp4197
g12
S'30'
p4198
sg27
(dp4199
g29
I1
sg11
I14
sg30
I1
sg31
I1
sg15
I17
sg16
I14
sg32
I15
ssbag19
(g20
g21
(dp4200
tp4201
Rp4202
(dp4203
g12
S'41'
p4204
sg27
(dp4205
g29
I1
sg11
I16
sg30
I1
sg31
I1
sg15
I15
sg16
I17
sg32
I13
ssbag19
(g20
g21
(dp4206
tp4207
Rp4208
(dp4209
g12
S'67'
p4210
sg27
(dp4211
g29
I1
sg11
I15
sg30
I1
sg31
I1
sg15
I16
sg16
I16
sg32
I12
ssbag19
(g20
g21
(dp4212
tp4213
Rp4214
(dp4215
g12
S'69'
p4216
sg27
(dp4217
g29
I1
sg11
I15
sg30
I1
sg31
I1
sg15
I15
sg16
I15
sg32
I16
ssbag19
(g20
g21
(dp4218
tp4219
Rp4220
(dp4221
g12
S'95'
p4222
sg27
(dp4223
g29
I1
sg11
I15
sg30
I1
sg31
I1
sg15
I15
sg16
I16
sg32
I14
ssbasg32
I85
sba(i__main__
PhysicalMachine
p4224
(dp4225
g11
I90
sg12
S'2'
p4226
sg14
I00
sg15
I91
sg16
I92
sg17
(lp4227
g19
(g20
g21
(dp4228
tp4229
Rp4230
(dp4231
g12
S'7'
p4232
sg27
(dp4233
g29
I1
sg11
I15
sg30
I1
sg31
I1
sg15
I14
sg16
I16
sg32
I15
ssbag19
(g20
g21
(dp4234
tp4235
Rp4236
(dp4237
g12
S'11'
p4238
sg27
(dp4239
g29
I1
sg11
I15
sg30
I1
sg31
I1
sg15
I14
sg16
I13
sg32
I15
ssbag19
(g20
g21
(dp4240
tp4241
Rp4242
(dp4243
g12
S'34'
p4244
sg27
(dp4245
g29
I1
sg11
I15
sg30
I1
sg31
I1
sg15
I16
sg16
I14
sg32
I15
ssbag19
(g20
g21
(dp4246
tp4247
Rp4248
(dp4249
g12
S'62'
p4250
sg27
(dp4251
g29
I1
sg11
I15
sg30
I1
sg31
I1
sg15
I16
sg16
I17
sg32
I14
ssbag19
(g20
g21
(dp4252
tp4253
Rp4254
(dp4255
g12
S'72'
p4256
sg27
(dp4257
g29
I1
sg11
I14
sg30
I1
sg31
I1
sg15
I15
sg16
I16
sg32
I15
ssbag19
(g20
g21
(dp4258
tp4259
Rp4260
(dp4261
g12
S'84'
p4262
sg27
(dp4263
g29
I1
sg11
I16
sg30
I1
sg31
I1
sg15
I16
sg16
I16
sg32
I14
ssbasg32
I88
sba(i__main__
PhysicalMachine
p4264
(dp4265
g11
I91
sg12
S'3'
p4266
sg14
I00
sg15
I90
sg16
I95
sg17
(lp4267
g19
(g20
g21
(dp4268
tp4269
Rp4270
(dp4271
g12
S'8'
p4272
sg27
(dp4273
g29
I1
sg11
I15
sg30
I1
sg31
I1
sg15
I16
sg16
I16
sg32
I15
ssbag19
(g20
g21
(dp4274
tp4275
Rp4276
(dp4277
g12
S'24'
p4278
sg27
(dp4279
g29
I1
sg11
I15
sg30
I1
sg31
I1
sg15
I13
sg16
I16
sg32
I16
ssbag19
(g20
g21
(dp4280
tp4281
Rp4282
(dp4283
g12
S'36'
p4284
sg27
(dp4285
g29
I1
sg11
I15
sg30
I1
sg31
I1
sg15
I15
sg16
I15
sg32
I15
ssbag19
(g20
g21
(dp4286
tp4287
Rp4288
(dp4289
g12
S'37'
p4290
sg27
(dp4291
g29
I1
sg11
I15
sg30
I1
sg31
I1
sg15
I17
sg16
I17
sg32
I15
ssbag19
(g20
g21
(dp4292
tp4293
Rp4294
(dp4295
g12
S'38'
p4296
sg27
(dp4297
g29
I1
sg11
I16
sg30
I1
sg31
I1
sg15
I14
sg16
I16
sg32
I15
ssbag19
(g20
g21
(dp4298
tp4299
Rp4300
(dp4301
g12
S'66'
p4302
sg27
(dp4303
g29
I1
sg11
I15
sg30
I1
sg31
I1
sg15
I15
sg16
I15
sg32
I15
ssbasg32
I91
sba(i__main__
PhysicalMachine
p4304
(dp4305
g11
I91
sg12
S'4'
p4306
sg14
I00
sg15
I89
sg16
I92
sg17
(lp4307
g19
(g20
g21
(dp4308
tp4309
Rp4310
(dp4311
g12
S'0'
p4312
sg27
(dp4313
g29
I1
sg11
I16
sg30
I1
sg31
I1
sg15
I15
sg16
I15
sg32
I14
ssbag19
(g20
g21
(dp4314
tp4315
Rp4316
(dp4317
g12
S'47'
p4318
sg27
(dp4319
g29
I1
sg11
I17
sg30
I1
sg31
I1
sg15
I13
sg16
I16
sg32
I16
ssbag19
(g20
g21
(dp4320
tp4321
Rp4322
(dp4323
g12
S'53'
p4324
sg27
(dp4325
g29
I1
sg11
I13
sg30
I1
sg31
I1
sg15
I16
sg16
I15
sg32
I16
ssbag19
(g20
g21
(dp4326
tp4327
Rp4328
(dp4329
g12
S'61'
p4330
sg27
(dp4331
g29
I1
sg11
I14
sg30
I1
sg31
I1
sg15
I15
sg16
I15
sg32
I16
ssbag19
(g20
g21
(dp4332
tp4333
Rp4334
(dp4335
g12
S'63'
p4336
sg27
(dp4337
g29
I1
sg11
I16
sg30
I1
sg31
I1
sg15
I14
sg16
I16
sg32
I16
ssbag19
(g20
g21
(dp4338
tp4339
Rp4340
(dp4341
g12
S'80'
p4342
sg27
(dp4343
g29
I1
sg11
I15
sg30
I1
sg31
I1
sg15
I16
sg16
I15
sg32
I16
ssbasg32
I94
sba(i__main__
PhysicalMachine
p4344
(dp4345
g11
I91
sg12
S'5'
p4346
sg14
I00
sg15
I88
sg16
I92
sg17
(lp4347
g19
(g20
g21
(dp4348
tp4349
Rp4350
(dp4351
g12
S'6'
p4352
sg27
(dp4353
g29
I1
sg11
I15
sg30
I1
sg31
I1
sg15
I15
sg16
I15
sg32
I16
ssbag19
(g20
g21
(dp4354
tp4355
Rp4356
(dp4357
g12
S'15'
p4358
sg27
(dp4359
g29
I1
sg11
I16
sg30
I1
sg31
I1
sg15
I13
sg16
I15
sg32
I15
ssbag19
(g20
g21
(dp4360
tp4361
Rp4362
(dp4363
g12
S'33'
p4364
sg27
(dp4365
g29
I1
sg11
I15
sg30
I1
sg31
I1
sg15
I15
sg16
I16
sg32
I15
ssbag19
(g20
g21
(dp4366
tp4367
Rp4368
(dp4369
g12
S'51'
p4370
sg27
(dp4371
g29
I1
sg11
I14
sg30
I1
sg31
I1
sg15
I13
sg16
I15
sg32
I16
ssbag19
(g20
g21
(dp4372
tp4373
Rp4374
(dp4375
g12
S'79'
p4376
sg27
(dp4377
g29
I1
sg11
I15
sg30
I1
sg31
I1
sg15
I16
sg16
I15
sg32
I14
ssbag19
(g20
g21
(dp4378
tp4379
Rp4380
(dp4381
g12
S'92'
p4382
sg27
(dp4383
g29
I1
sg11
I16
sg30
I1
sg31
I1
sg15
I16
sg16
I16
sg32
I15
ssbasg32
I91
sba(i__main__
PhysicalMachine
p4384
(dp4385
g11
I94
sg12
S'6'
p4386
sg14
I00
sg15
I87
sg16
I92
sg17
(lp4387
g19
(g20
g21
(dp4388
tp4389
Rp4390
(dp4391
g12
S'12'
p4392
sg27
(dp4393
g29
I1
sg11
I16
sg30
I1
sg31
I1
sg15
I14
sg16
I16
sg32
I16
ssbag19
(g20
g21
(dp4394
tp4395
Rp4396
(dp4397
g12
S'28'
p4398
sg27
(dp4399
g29
I1
sg11
I15
sg30
I1
sg31
I1
sg15
I15
sg16
I15
sg32
I15
ssbag19
(g20
g21
(dp4400
tp4401
Rp4402
(dp4403
g12
S'74'
p4404
sg27
(dp4405
g29
I1
sg11
I16
sg30
I1
sg31
I1
sg15
I15
sg16
I15
sg32
I16
ssbag19
(g20
g21
(dp4406
tp4407
Rp4408
(dp4409
g12
S'81'
p4410
sg27
(dp4411
g29
I1
sg11
I16
sg30
I1
sg31
I1
sg15
I15
sg16
I14
sg32
I16
ssbag19
(g20
g21
(dp4412
tp4413
Rp4414
(dp4415
g12
S'85'
p4416
sg27
(dp4417
g29
I1
sg11
I15
sg30
I1
sg31
I1
sg15
I14
sg16
I16
sg32
I17
ssbag19
(g20
g21
(dp4418
tp4419
Rp4420
(dp4421
g12
S'90'
p4422
sg27
(dp4423
g29
I1
sg11
I16
sg30
I1
sg31
I1
sg15
I14
sg16
I16
sg32
I17
ssbasg32
I97
sba(i__main__
PhysicalMachine
p4424
(dp4425
g11
I92
sg12
S'7'
p4426
sg14
I00
sg15
I89
sg16
I94
sg17
(lp4427
g19
(g20
g21
(dp4428
tp4429
Rp4430
(dp4431
g12
S'17'
p4432
sg27
(dp4433
g29
I1
sg11
I16
sg30
I1
sg31
I1
sg15
I15
sg16
I14
sg32
I14
ssbag19
(g20
g21
(dp4434
tp4435
Rp4436
(dp4437
g12
S'26'
p4438
sg27
(dp4439
g29
I1
sg11
I15
sg30
I1
sg31
I1
sg15
I15
sg16
I16
sg32
I16
ssbag19
(g20
g21
(dp4440
tp4441
Rp4442
(dp4443
g12
S'54'
p4444
sg27
(dp4445
g29
I1
sg11
I16
sg30
I1
sg31
I1
sg15
I14
sg16
I16
sg32
I15
ssbag19
(g20
g21
(dp4446
tp4447
Rp4448
(dp4449
g12
S'58'
p4450
sg27
(dp4451
g29
I1
sg11
I16
sg30
I1
sg31
I1
sg15
I15
sg16
I17
sg32
I17
ssbag19
(g20
g21
(dp4452
tp4453
Rp4454
(dp4455
g12
S'89'
p4456
sg27
(dp4457
g29
I1
sg11
I14
sg30
I1
sg31
I1
sg15
I14
sg16
I16
sg32
I15
ssbag19
(g20
g21
(dp4458
tp4459
Rp4460
(dp4461
g12
S'91'
p4462
sg27
(dp4463
g29
I1
sg11
I15
sg30
I1
sg31
I1
sg15
I16
sg16
I15
sg32
I16
ssbasg32
I93
sba(i__main__
PhysicalMachine
p4464
(dp4465
g11
I93
sg12
S'8'
p4466
sg14
I00
sg15
I94
sg16
I90
sg17
(lp4467
g19
(g20
g21
(dp4468
tp4469
Rp4470
(dp4471
g12
S'40'
p4472
sg27
(dp4473
g29
I1
sg11
I15
sg30
I1
sg31
I1
sg15
I16
sg16
I16
sg32
I16
ssbag19
(g20
g21
(dp4474
tp4475
Rp4476
(dp4477
g12
S'43'
p4478
sg27
(dp4479
g29
I1
sg11
I15
sg30
I1
sg31
I1
sg15
I15
sg16
I15
sg32
I15
ssbag19
(g20
g21
(dp4480
tp4481
Rp4482
(dp4483
g12
S'49'
p4484
sg27
(dp4485
g29
I1
sg11
I16
sg30
I1
sg31
I1
sg15
I16
sg16
I14
sg32
I16
ssbag19
(g20
g21
(dp4486
tp4487
Rp4488
(dp4489
g12
S'50'
p4490
sg27
(dp4491
g29
I1
sg11
I16
sg30
I1
sg31
I1
sg15
I15
sg16
I14
sg32
I15
ssbag19
(g20
g21
(dp4492
tp4493
Rp4494
(dp4495
g12
S'77'
p4496
sg27
(dp4497
g29
I1
sg11
I16
sg30
I1
sg31
I1
sg15
I16
sg16
I16
sg32
I16
ssbag19
(g20
g21
(dp4498
tp4499
Rp4500
(dp4501
g12
S'82'
p4502
sg27
(dp4503
g29
I1
sg11
I15
sg30
I1
sg31
I1
sg15
I16
sg16
I15
sg32
I15
ssbasg32
I93
sba(i__main__
PhysicalMachine
p4504
(dp4505
g11
I93
sg12
S'9'
p4506
sg14
I00
sg15
I91
sg16
I90
sg17
(lp4507
g19
(g20
g21
(dp4508
tp4509
Rp4510
(dp4511
g12
S'5'
p4512
sg27
(dp4513
g29
I1
sg11
I16
sg30
I1
sg31
I1
sg15
I16
sg16
I16
sg32
I16
ssbag19
(g20
g21
(dp4514
tp4515
Rp4516
(dp4517
g12
S'16'
p4518
sg27
(dp4519
g29
I1
sg11
I15
sg30
I1
sg31
I1
sg15
I15
sg16
I15
sg32
I14
ssbag19
(g20
g21
(dp4520
tp4521
Rp4522
(dp4523
g12
S'25'
p4524
sg27
(dp4525
g29
I1
sg11
I16
sg30
I1
sg31
I1
sg15
I16
sg16
I14
sg32
I15
ssbag19
(g20
g21
(dp4526
tp4527
Rp4528
(dp4529
g12
S'46'
p4530
sg27
(dp4531
g29
I1
sg11
I15
sg30
I1
sg31
I1
sg15
I13
sg16
I16
sg32
I15
ssbag19
(g20
g21
(dp4532
tp4533
Rp4534
(dp4535
g12
S'55'
p4536
sg27
(dp4537
g29
I1
sg11
I16
sg30
I1
sg31
I1
sg15
I16
sg16
I15
sg32
I15
ssbag19
(g20
g21
(dp4538
tp4539
Rp4540
(dp4541
g12
S'57'
p4542
sg27
(dp4543
g29
I1
sg11
I15
sg30
I1
sg31
I1
sg15
I15
sg16
I14
sg32
I13
ssbasg32
I88
sba(i__main__
PhysicalMachine
p4544
(dp4545
g11
I90
sg12
S'10'
p4546
sg14
I00
sg15
I89
sg16
I90
sg17
(lp4547
g19
(g20
g21
(dp4548
tp4549
Rp4550
(dp4551
g12
S'9'
p4552
sg27
(dp4553
g29
I1
sg11
I14
sg30
I1
sg31
I1
sg15
I16
sg16
I15
sg32
I16
ssbag19
(g20
g21
(dp4554
tp4555
Rp4556
(dp4557
g12
S'10'
p4558
sg27
(dp4559
g29
I1
sg11
I15
sg30
I1
sg31
I1
sg15
I15
sg16
I16
sg32
I15
ssbag19
(g20
g21
(dp4560
tp4561
Rp4562
(dp4563
g12
S'14'
p4564
sg27
(dp4565
g29
I1
sg11
I14
sg30
I1
sg31
I1
sg15
I15
sg16
I15
sg32
I17
ssbag19
(g20
g21
(dp4566
tp4567
Rp4568
(dp4569
g12
S'52'
p4570
sg27
(dp4571
g29
I1
sg11
I15
sg30
I1
sg31
I1
sg15
I15
sg16
I14
sg32
I16
ssbag19
(g20
g21
(dp4572
tp4573
Rp4574
(dp4575
g12
S'76'
p4576
sg27
(dp4577
g29
I1
sg11
I16
sg30
I1
sg31
I1
sg15
I13
sg16
I15
sg32
I14
ssbag19
(g20
g21
(dp4578
tp4579
Rp4580
(dp4581
g12
S'78'
p4582
sg27
(dp4583
g29
I1
sg11
I16
sg30
I1
sg31
I1
sg15
I15
sg16
I15
sg32
I15
ssbasg32
I93
sba(i__main__
PhysicalMachine
p4584
(dp4585
g11
I95
sg12
S'11'
p4586
sg14
I00
sg15
I89
sg16
I94
sg17
(lp4587
g19
(g20
g21
(dp4588
tp4589
Rp4590
(dp4591
g12
S'32'
p4592
sg27
(dp4593
g29
I1
sg11
I15
sg30
I1
sg31
I1
sg15
I15
sg16
I17
sg32
I15
ssbag19
(g20
g21
(dp4594
tp4595
Rp4596
(dp4597
g12
S'42'
p4598
sg27
(dp4599
g29
I1
sg11
I18
sg30
I1
sg31
I1
sg15
I16
sg16
I16
sg32
I16
ssbag19
(g20
g21
(dp4600
tp4601
Rp4602
(dp4603
g12
S'64'
p4604
sg27
(dp4605
g29
I1
sg11
I15
sg30
I1
sg31
I1
sg15
I16
sg16
I16
sg32
I13
ssbag19
(g20
g21
(dp4606
tp4607
Rp4608
(dp4609
g12
S'68'
p4610
sg27
(dp4611
g29
I1
sg11
I15
sg30
I1
sg31
I1
sg15
I13
sg16
I15
sg32
I16
ssbag19
(g20
g21
(dp4612
tp4613
Rp4614
(dp4615
g12
S'73'
p4616
sg27
(dp4617
g29
I1
sg11
I15
sg30
I1
sg31
I1
sg15
I14
sg16
I16
sg32
I16
ssbag19
(g20
g21
(dp4618
tp4619
Rp4620
(dp4621
g12
S'86'
p4622
sg27
(dp4623
g29
I1
sg11
I17
sg30
I1
sg31
I1
sg15
I15
sg16
I14
sg32
I15
ssbasg32
I91
sba(i__main__
PhysicalMachine
p4624
(dp4625
g11
I93
sg12
S'12'
p4626
sg14
I00
sg15
I97
sg16
I89
sg17
(lp4627
g19
(g20
g21
(dp4628
tp4629
Rp4630
(dp4631
g12
S'2'
p4632
sg27
(dp4633
g29
I1
sg11
I15
sg30
I1
sg31
I1
sg15
I16
sg16
I15
sg32
I16
ssbag19
(g20
g21
(dp4634
tp4635
Rp4636
(dp4637
g12
S'18'
p4638
sg27
(dp4639
g29
I1
sg11
I16
sg30
I1
sg31
I1
sg15
I17
sg16
I14
sg32
I16
ssbag19
(g20
g21
(dp4640
tp4641
Rp4642
(dp4643
g12
S'27'
p4644
sg27
(dp4645
g29
I1
sg11
I15
sg30
I1
sg31
I1
sg15
I16
sg16
I15
sg32
I14
ssbag19
(g20
g21
(dp4646
tp4647
Rp4648
(dp4649
g12
S'29'
p4650
sg27
(dp4651
g29
I1
sg11
I15
sg30
I1
sg31
I1
sg15
I16
sg16
I16
sg32
I15
ssbag19
(g20
g21
(dp4652
tp4653
Rp4654
(dp4655
g12
S'65'
p4656
sg27
(dp4657
g29
I1
sg11
I16
sg30
I1
sg31
I1
sg15
I17
sg16
I15
sg32
I16
ssbag19
(g20
g21
(dp4658
tp4659
Rp4660
(dp4661
g12
S'75'
p4662
sg27
(dp4663
g29
I1
sg11
I16
sg30
I1
sg31
I1
sg15
I15
sg16
I14
sg32
I16
ssbasg32
I93
sba(i__main__
PhysicalMachine
p4664
(dp4665
g11
I93
sg12
S'13'
p4666
sg14
I00
sg15
I84
sg16
I91
sg17
(lp4667
g19
(g20
g21
(dp4668
tp4669
Rp4670
(dp4671
g12
S'4'
p4672
sg27
(dp4673
g29
I1
sg11
I15
sg30
I1
sg31
I1
sg15
I14
sg16
I13
sg32
I16
ssbag19
(g20
g21
(dp4674
tp4675
Rp4676
(dp4677
g12
S'23'
p4678
sg27
(dp4679
g29
I1
sg11
I16
sg30
I1
sg31
I1
sg15
I14
sg16
I15
sg32
I15
ssbag19
(g20
g21
(dp4680
tp4681
Rp4682
(dp4683
g12
S'39'
p4684
sg27
(dp4685
g29
I1
sg11
I16
sg30
I1
sg31
I1
sg15
I14
sg16
I16
sg32
I13
ssbag19
(g20
g21
(dp4686
tp4687
Rp4688
(dp4689
g12
S'44'
p4690
sg27
(dp4691
g29
I1
sg11
I15
sg30
I1
sg31
I1
sg15
I14
sg16
I16
sg32
I13
ssbag19
(g20
g21
(dp4692
tp4693
Rp4694
(dp4695
g12
S'71'
p4696
sg27
(dp4697
g29
I1
sg11
I16
sg30
I1
sg31
I1
sg15
I15
sg16
I16
sg32
I14
ssbag19
(g20
g21
(dp4698
tp4699
Rp4700
(dp4701
g12
S'83'
p4702
sg27
(dp4703
g29
I1
sg11
I15
sg30
I1
sg31
I1
sg15
I13
sg16
I15
sg32
I14
ssbasg32
I85
sba(i__main__
PhysicalMachine
p4704
(dp4705
g11
I85
sg12
S'14'
p4706
sg14
I00
sg15
I92
sg16
I91
sg17
(lp4707
g19
(g20
g21
(dp4708
tp4709
Rp4710
(dp4711
g12
S'3'
p4712
sg27
(dp4713
g29
I1
sg11
I14
sg30
I1
sg31
I1
sg15
I16
sg16
I15
sg32
I16
ssbag19
(g20
g21
(dp4714
tp4715
Rp4716
(dp4717
g12
S'20'
p4718
sg27
(dp4719
g29
I1
sg11
I16
sg30
I1
sg31
I1
sg15
I15
sg16
I16
sg32
I16
ssbag19
(g20
g21
(dp4720
tp4721
Rp4722
(dp4723
g12
S'22'
p4724
sg27
(dp4725
g29
I1
sg11
I13
sg30
I1
sg31
I1
sg15
I16
sg16
I15
sg32
I15
ssbag19
(g20
g21
(dp4726
tp4727
Rp4728
(dp4729
g12
S'31'
p4730
sg27
(dp4731
g29
I1
sg11
I12
sg30
I1
sg31
I1
sg15
I14
sg16
I15
sg32
I17
ssbag19
(g20
g21
(dp4732
tp4733
Rp4734
(dp4735
g12
S'45'
p4736
sg27
(dp4737
g29
I1
sg11
I15
sg30
I1
sg31
I1
sg15
I16
sg16
I14
sg32
I16
ssbag19
(g20
g21
(dp4738
tp4739
Rp4740
(dp4741
g12
S'87'
p4742
sg27
(dp4743
g29
I1
sg11
I15
sg30
I1
sg31
I1
sg15
I15
sg16
I16
sg32
I13
ssbasg32
I93
sba(i__main__
PhysicalMachine
p4744
(dp4745
g11
I94
sg12
S'15'
p4746
sg14
I00
sg15
I95
sg16
I91
sg17
(lp4747
g19
(g20
g21
(dp4748
tp4749
Rp4750
(dp4751
g12
S'1'
p4752
sg27
(dp4753
g29
I1
sg11
I16
sg30
I1
sg31
I1
sg15
I16
sg16
I14
sg32
I15
ssbag19
(g20
g21
(dp4754
tp4755
Rp4756
(dp4757
g12
S'19'
p4758
sg27
(dp4759
g29
I1
sg11
I15
sg30
I1
sg31
I1
sg15
I16
sg16
I16
sg32
I15
ssbag19
(g20
g21
(dp4760
tp4761
Rp4762
(dp4763
g12
S'48'
p4764
sg27
(dp4765
g29
I1
sg11
I16
sg30
I1
sg31
I1
sg15
I14
sg16
I16
sg32
I16
ssbag19
(g20
g21
(dp4766
tp4767
Rp4768
(dp4769
g12
S'56'
p4770
sg27
(dp4771
g29
I1
sg11
I16
sg30
I1
sg31
I1
sg15
I17
sg16
I14
sg32
I13
ssbag19
(g20
g21
(dp4772
tp4773
Rp4774
(dp4775
g12
S'59'
p4776
sg27
(dp4777
g29
I1
sg11
I16
sg30
I1
sg31
I1
sg15
I16
sg16
I15
sg32
I16
ssbag19
(g20
g21
(dp4778
tp4779
Rp4780
(dp4781
g12
S'93'
p4782
sg27
(dp4783
g29
I1
sg11
I15
sg30
I1
sg31
I1
sg15
I16
sg16
I16
sg32
I15
ssbasg32
I90
sba(i__main__
PhysicalMachine
p4784
(dp4785
g11
I0
sg12
S'16'
p4786
sg14
I01
sg15
I0
sg16
I0
sg17
(lp4787
sg32
I0
sba(i__main__
PhysicalMachine
p4788
(dp4789
g11
I0
sg12
S'17'
p4790
sg14
I01
sg15
I0
sg16
I0
sg17
(lp4791
sg32
I0
sba(i__main__
PhysicalMachine
p4792
(dp4793
g11
I0
sg12
S'18'
p4794
sg14
I01
sg15
I0
sg16
I0
sg17
(lp4795
sg32
I0
sba(i__main__
PhysicalMachine
p4796
(dp4797
g11
I0
sg12
S'19'
p4798
sg14
I01
sg15
I0
sg16
I0
sg17
(lp4799
sg32
I0
sba(i__main__
PhysicalMachine
p4800
(dp4801
g11
I0
sg12
S'20'
p4802
sg14
I01
sg15
I0
sg16
I0
sg17
(lp4803
sg32
I0
sba(i__main__
PhysicalMachine
p4804
(dp4805
g11
I0
sg12
S'21'
p4806
sg14
I01
sg15
I0
sg16
I0
sg17
(lp4807
sg32
I0
sba(i__main__
PhysicalMachine
p4808
(dp4809
g11
I0
sg12
S'22'
p4810
sg14
I01
sg15
I0
sg16
I0
sg17
(lp4811
sg32
I0
sba(i__main__
PhysicalMachine
p4812
(dp4813
g11
I0
sg12
S'23'
p4814
sg14
I01
sg15
I0
sg16
I0
sg17
(lp4815
sg32
I0
sba(i__main__
PhysicalMachine
p4816
(dp4817
g11
I0
sg12
S'24'
p4818
sg14
I01
sg15
I0
sg16
I0
sg17
(lp4819
sg32
I0
sba(i__main__
PhysicalMachine
p4820
(dp4821
g11
I0
sg12
S'25'
p4822
sg14
I01
sg15
I0
sg16
I0
sg17
(lp4823
sg32
I0
sba(i__main__
PhysicalMachine
p4824
(dp4825
g11
I0
sg12
S'26'
p4826
sg14
I01
sg15
I0
sg16
I0
sg17
(lp4827
sg32
I0
sba(i__main__
PhysicalMachine
p4828
(dp4829
g11
I0
sg12
S'27'
p4830
sg14
I01
sg15
I0
sg16
I0
sg17
(lp4831
sg32
I0
sba(i__main__
PhysicalMachine
p4832
(dp4833
g11
I0
sg12
S'28'
p4834
sg14
I01
sg15
I0
sg16
I0
sg17
(lp4835
sg32
I0
sba(i__main__
PhysicalMachine
p4836
(dp4837
g11
I0
sg12
S'29'
p4838
sg14
I01
sg15
I0
sg16
I0
sg17
(lp4839
sg32
I0
sba(i__main__
PhysicalMachine
p4840
(dp4841
g11
I0
sg12
S'30'
p4842
sg14
I01
sg15
I0
sg16
I0
sg17
(lp4843
sg32
I0
sba(i__main__
PhysicalMachine
p4844
(dp4845
g11
I0
sg12
S'31'
p4846
sg14
I01
sg15
I0
sg16
I0
sg17
(lp4847
sg32
I0
sba(i__main__
PhysicalMachine
p4848
(dp4849
g11
I0
sg12
S'32'
p4850
sg14
I01
sg15
I0
sg16
I0
sg17
(lp4851
sg32
I0
sba(i__main__
PhysicalMachine
p4852
(dp4853
g11
I0
sg12
S'33'
p4854
sg14
I01
sg15
I0
sg16
I0
sg17
(lp4855
sg32
I0
sba(i__main__
PhysicalMachine
p4856
(dp4857
g11
I0
sg12
S'34'
p4858
sg14
I01
sg15
I0
sg16
I0
sg17
(lp4859
sg32
I0
sba(i__main__
PhysicalMachine
p4860
(dp4861
g11
I0
sg12
S'35'
p4862
sg14
I01
sg15
I0
sg16
I0
sg17
(lp4863
sg32
I0
sba(i__main__
PhysicalMachine
p4864
(dp4865
g11
I0
sg12
S'36'
p4866
sg14
I01
sg15
I0
sg16
I0
sg17
(lp4867
sg32
I0
sba(i__main__
PhysicalMachine
p4868
(dp4869
g11
I0
sg12
S'37'
p4870
sg14
I01
sg15
I0
sg16
I0
sg17
(lp4871
sg32
I0
sba(i__main__
PhysicalMachine
p4872
(dp4873
g11
I0
sg12
S'38'
p4874
sg14
I01
sg15
I0
sg16
I0
sg17
(lp4875
sg32
I0
sba(i__main__
PhysicalMachine
p4876
(dp4877
g11
I0
sg12
S'39'
p4878
sg14
I01
sg15
I0
sg16
I0
sg17
(lp4879
sg32
I0
sba(i__main__
PhysicalMachine
p4880
(dp4881
g11
I0
sg12
S'40'
p4882
sg14
I01
sg15
I0
sg16
I0
sg17
(lp4883
sg32
I0
sba(i__main__
PhysicalMachine
p4884
(dp4885
g11
I0
sg12
S'41'
p4886
sg14
I01
sg15
I0
sg16
I0
sg17
(lp4887
sg32
I0
sba(i__main__
PhysicalMachine
p4888
(dp4889
g11
I0
sg12
S'42'
p4890
sg14
I01
sg15
I0
sg16
I0
sg17
(lp4891
sg32
I0
sba(i__main__
PhysicalMachine
p4892
(dp4893
g11
I0
sg12
S'43'
p4894
sg14
I01
sg15
I0
sg16
I0
sg17
(lp4895
sg32
I0
sba(i__main__
PhysicalMachine
p4896
(dp4897
g11
I0
sg12
S'44'
p4898
sg14
I01
sg15
I0
sg16
I0
sg17
(lp4899
sg32
I0
sba(i__main__
PhysicalMachine
p4900
(dp4901
g11
I0
sg12
S'45'
p4902
sg14
I01
sg15
I0
sg16
I0
sg17
(lp4903
sg32
I0
sba(i__main__
PhysicalMachine
p4904
(dp4905
g11
I0
sg12
S'46'
p4906
sg14
I01
sg15
I0
sg16
I0
sg17
(lp4907
sg32
I0
sba(i__main__
PhysicalMachine
p4908
(dp4909
g11
I0
sg12
S'47'
p4910
sg14
I01
sg15
I0
sg16
I0
sg17
(lp4911
sg32
I0
sba(i__main__
PhysicalMachine
p4912
(dp4913
g11
I0
sg12
S'48'
p4914
sg14
I01
sg15
I0
sg16
I0
sg17
(lp4915
sg32
I0
sba(i__main__
PhysicalMachine
p4916
(dp4917
g11
I0
sg12
S'49'
p4918
sg14
I01
sg15
I0
sg16
I0
sg17
(lp4919
sg32
I0
sba(i__main__
PhysicalMachine
p4920
(dp4921
g11
I0
sg12
S'50'
p4922
sg14
I01
sg15
I0
sg16
I0
sg17
(lp4923
sg32
I0
sba(i__main__
PhysicalMachine
p4924
(dp4925
g11
I0
sg12
S'51'
p4926
sg14
I01
sg15
I0
sg16
I0
sg17
(lp4927
sg32
I0
sba(i__main__
PhysicalMachine
p4928
(dp4929
g11
I0
sg12
S'52'
p4930
sg14
I01
sg15
I0
sg16
I0
sg17
(lp4931
sg32
I0
sba(i__main__
PhysicalMachine
p4932
(dp4933
g11
I0
sg12
S'53'
p4934
sg14
I01
sg15
I0
sg16
I0
sg17
(lp4935
sg32
I0
sba(i__main__
PhysicalMachine
p4936
(dp4937
g11
I0
sg12
S'54'
p4938
sg14
I01
sg15
I0
sg16
I0
sg17
(lp4939
sg32
I0
sba(i__main__
PhysicalMachine
p4940
(dp4941
g11
I0
sg12
S'55'
p4942
sg14
I01
sg15
I0
sg16
I0
sg17
(lp4943
sg32
I0
sba(i__main__
PhysicalMachine
p4944
(dp4945
g11
I0
sg12
S'56'
p4946
sg14
I01
sg15
I0
sg16
I0
sg17
(lp4947
sg32
I0
sba(i__main__
PhysicalMachine
p4948
(dp4949
g11
I0
sg12
S'57'
p4950
sg14
I01
sg15
I0
sg16
I0
sg17
(lp4951
sg32
I0
sba(i__main__
PhysicalMachine
p4952
(dp4953
g11
I0
sg12
S'58'
p4954
sg14
I01
sg15
I0
sg16
I0
sg17
(lp4955
sg32
I0
sba(i__main__
PhysicalMachine
p4956
(dp4957
g11
I0
sg12
S'59'
p4958
sg14
I01
sg15
I0
sg16
I0
sg17
(lp4959
sg32
I0
sba(i__main__
PhysicalMachine
p4960
(dp4961
g11
I0
sg12
S'60'
p4962
sg14
I01
sg15
I0
sg16
I0
sg17
(lp4963
sg32
I0
sba(i__main__
PhysicalMachine
p4964
(dp4965
g11
I0
sg12
S'61'
p4966
sg14
I01
sg15
I0
sg16
I0
sg17
(lp4967
sg32
I0
sba(i__main__
PhysicalMachine
p4968
(dp4969
g11
I0
sg12
S'62'
p4970
sg14
I01
sg15
I0
sg16
I0
sg17
(lp4971
sg32
I0
sba(i__main__
PhysicalMachine
p4972
(dp4973
g11
I0
sg12
S'63'
p4974
sg14
I01
sg15
I0
sg16
I0
sg17
(lp4975
sg32
I0
sba(i__main__
PhysicalMachine
p4976
(dp4977
g11
I0
sg12
S'64'
p4978
sg14
I01
sg15
I0
sg16
I0
sg17
(lp4979
sg32
I0
sba(i__main__
PhysicalMachine
p4980
(dp4981
g11
I0
sg12
S'65'
p4982
sg14
I01
sg15
I0
sg16
I0
sg17
(lp4983
sg32
I0
sba(i__main__
PhysicalMachine
p4984
(dp4985
g11
I0
sg12
S'66'
p4986
sg14
I01
sg15
I0
sg16
I0
sg17
(lp4987
sg32
I0
sba(i__main__
PhysicalMachine
p4988
(dp4989
g11
I0
sg12
S'67'
p4990
sg14
I01
sg15
I0
sg16
I0
sg17
(lp4991
sg32
I0
sba(i__main__
PhysicalMachine
p4992
(dp4993
g11
I0
sg12
S'68'
p4994
sg14
I01
sg15
I0
sg16
I0
sg17
(lp4995
sg32
I0
sba(i__main__
PhysicalMachine
p4996
(dp4997
g11
I0
sg12
S'69'
p4998
sg14
I01
sg15
I0
sg16
I0
sg17
(lp4999
sg32
I0
sba(i__main__
PhysicalMachine
p5000
(dp5001
g11
I0
sg12
S'70'
p5002
sg14
I01
sg15
I0
sg16
I0
sg17
(lp5003
sg32
I0
sba(i__main__
PhysicalMachine
p5004
(dp5005
g11
I0
sg12
S'71'
p5006
sg14
I01
sg15
I0
sg16
I0
sg17
(lp5007
sg32
I0
sbasbsg407
F4086.88
sg408
F1383314044.855907
sg409
I16
sg410
g411
sg1589
F4.9572319984436035
sg1590
I96
sg1591
(i__main__
Manager
p5008
(dp5009
g1585
(i__main__
VMManager
p5010
(dp5011
g7
(lp5012
sbsg4
(lp5013
sg1598
I96
sg410
g411
sg1599
I72
sg413
g4141
sbsg1600
F1383314049.813139
sg1601
I96
sg1602
I0
sg1603
I72
sa(dp5014
g2
I53
sg3
I0
sg4
(i__main__
PMManager
p5015
(dp5016
g7
(lp5017
(i__main__
PhysicalMachine
p5018
(dp5019
g11
I92
sg12
S'0'
p5020
sg14
I00
sg15
I91
sg16
I94
sg17
(lp5021
g19
(g20
g21
(dp5022
tp5023
Rp5024
(dp5025
g12
S'7'
p5026
sg27
(dp5027
g29
I1
sg11
I15
sg30
I1
sg31
I1
sg15
I14
sg16
I16
sg32
I15
ssbag19
(g20
g21
(dp5028
tp5029
Rp5030
(dp5031
g12
S'32'
p5032
sg27
(dp5033
g29
I1
sg11
I15
sg30
I1
sg31
I1
sg15
I15
sg16
I17
sg32
I15
ssbag19
(g20
g21
(dp5034
tp5035
Rp5036
(dp5037
g12
S'44'
p5038
sg27
(dp5039
g29
I1
sg11
I15
sg30
I1
sg31
I1
sg15
I14
sg16
I16
sg32
I13
ssbag19
(g20
g21
(dp5040
tp5041
Rp5042
(dp5043
g12
S'56'
p5044
sg27
(dp5045
g29
I1
sg11
I16
sg30
I1
sg31
I1
sg15
I17
sg16
I14
sg32
I13
ssbag19
(g20
g21
(dp5046
tp5047
Rp5048
(dp5049
g12
S'78'
p5050
sg27
(dp5051
g29
I1
sg11
I16
sg30
I1
sg31
I1
sg15
I15
sg16
I15
sg32
I15
ssbag19
(g20
g21
(dp5052
tp5053
Rp5054
(dp5055
g12
S'110'
p5056
sg27
(dp5057
g29
I1
sg11
I15
sg30
I1
sg31
I1
sg15
I16
sg16
I16
sg32
I14
ssbasg32
I85
sba(i__main__
PhysicalMachine
p5058
(dp5059
g11
I92
sg12
S'1'
p5060
sg14
I00
sg15
I95
sg16
I90
sg17
(lp5061
g19
(g20
g21
(dp5062
tp5063
Rp5064
(dp5065
g12
S'8'
p5066
sg27
(dp5067
g29
I1
sg11
I15
sg30
I1
sg31
I1
sg15
I16
sg16
I16
sg32
I15
ssbag19
(g20
g21
(dp5068
tp5069
Rp5070
(dp5071
g12
S'18'
p5072
sg27
(dp5073
g29
I1
sg11
I16
sg30
I1
sg31
I1
sg15
I17
sg16
I14
sg32
I16
ssbag19
(g20
g21
(dp5074
tp5075
Rp5076
(dp5077
g12
S'20'
p5078
sg27
(dp5079
g29
I1
sg11
I16
sg30
I1
sg31
I1
sg15
I15
sg16
I16
sg32
I16
ssbag19
(g20
g21
(dp5080
tp5081
Rp5082
(dp5083
g12
S'45'
p5084
sg27
(dp5085
g29
I1
sg11
I15
sg30
I1
sg31
I1
sg15
I16
sg16
I14
sg32
I16
ssbag19
(g20
g21
(dp5086
tp5087
Rp5088
(dp5089
g12
S'52'
p5090
sg27
(dp5091
g29
I1
sg11
I15
sg30
I1
sg31
I1
sg15
I15
sg16
I14
sg32
I16
ssbag19
(g20
g21
(dp5092
tp5093
Rp5094
(dp5095
g12
S'93'
p5096
sg27
(dp5097
g29
I1
sg11
I15
sg30
I1
sg31
I1
sg15
I16
sg16
I16
sg32
I15
ssbasg32
I94
sba(i__main__
PhysicalMachine
p5098
(dp5099
g11
I93
sg12
S'2'
p5100
sg14
I00
sg15
I94
sg16
I92
sg17
(lp5101
g19
(g20
g21
(dp5102
tp5103
Rp5104
(dp5105
g12
S'9'
p5106
sg27
(dp5107
g29
I1
sg11
I14
sg30
I1
sg31
I1
sg15
I16
sg16
I15
sg32
I16
ssbag19
(g20
g21
(dp5108
tp5109
Rp5110
(dp5111
g12
S'36'
p5112
sg27
(dp5113
g29
I1
sg11
I15
sg30
I1
sg31
I1
sg15
I15
sg16
I15
sg32
I15
ssbag19
(g20
g21
(dp5114
tp5115
Rp5116
(dp5117
g12
S'42'
p5118
sg27
(dp5119
g29
I1
sg11
I18
sg30
I1
sg31
I1
sg15
I16
sg16
I16
sg32
I16
ssbag19
(g20
g21
(dp5120
tp5121
Rp5122
(dp5123
g12
S'79'
p5124
sg27
(dp5125
g29
I1
sg11
I15
sg30
I1
sg31
I1
sg15
I16
sg16
I15
sg32
I14
ssbag19
(g20
g21
(dp5126
tp5127
Rp5128
(dp5129
g12
S'92'
p5130
sg27
(dp5131
g29
I1
sg11
I16
sg30
I1
sg31
I1
sg15
I16
sg16
I16
sg32
I15
ssbag19
(g20
g21
(dp5132
tp5133
Rp5134
(dp5135
g12
S'100'
p5136
sg27
(dp5137
g29
I1
sg11
I15
sg30
I1
sg31
I1
sg15
I15
sg16
I15
sg32
I15
ssbasg32
I91
sba(i__main__
PhysicalMachine
p5138
(dp5139
g11
I93
sg12
S'3'
p5140
sg14
I00
sg15
I87
sg16
I91
sg17
(lp5141
g19
(g20
g21
(dp5142
tp5143
Rp5144
(dp5145
g12
S'12'
p5146
sg27
(dp5147
g29
I1
sg11
I16
sg30
I1
sg31
I1
sg15
I14
sg16
I16
sg32
I16
ssbag19
(g20
g21
(dp5148
tp5149
Rp5150
(dp5151
g12
S'29'
p5152
sg27
(dp5153
g29
I1
sg11
I15
sg30
I1
sg31
I1
sg15
I16
sg16
I16
sg32
I15
ssbag19
(g20
g21
(dp5154
tp5155
Rp5156
(dp5157
g12
S'90'
p5158
sg27
(dp5159
g29
I1
sg11
I16
sg30
I1
sg31
I1
sg15
I14
sg16
I16
sg32
I17
ssbag19
(g20
g21
(dp5160
tp5161
Rp5162
(dp5163
g12
S'99'
p5164
sg27
(dp5165
g29
I1
sg11
I14
sg30
I1
sg31
I1
sg15
I15
sg16
I15
sg32
I16
ssbag19
(g20
g21
(dp5166
tp5167
Rp5168
(dp5169
g12
S'102'
p5170
sg27
(dp5171
g29
I1
sg11
I15
sg30
I1
sg31
I1
sg15
I14
sg16
I14
sg32
I17
ssbag19
(g20
g21
(dp5172
tp5173
Rp5174
(dp5175
g12
S'107'
p5176
sg27
(dp5177
g29
I1
sg11
I17
sg30
I1
sg31
I1
sg15
I14
sg16
I14
sg32
I15
ssbasg32
I96
sba(i__main__
PhysicalMachine
p5178
(dp5179
g11
I95
sg12
S'4'
p5180
sg14
I00
sg15
I93
sg16
I86
sg17
(lp5181
g19
(g20
g21
(dp5182
tp5183
Rp5184
(dp5185
g12
S'23'
p5186
sg27
(dp5187
g29
I1
sg11
I16
sg30
I1
sg31
I1
sg15
I14
sg16
I15
sg32
I15
ssbag19
(g20
g21
(dp5188
tp5189
Rp5190
(dp5191
g12
S'25'
p5192
sg27
(dp5193
g29
I1
sg11
I16
sg30
I1
sg31
I1
sg15
I16
sg16
I14
sg32
I15
ssbag19
(g20
g21
(dp5194
tp5195
Rp5196
(dp5197
g12
S'59'
p5198
sg27
(dp5199
g29
I1
sg11
I16
sg30
I1
sg31
I1
sg15
I16
sg16
I15
sg32
I16
ssbag19
(g20
g21
(dp5200
tp5201
Rp5202
(dp5203
g12
S'82'
p5204
sg27
(dp5205
g29
I1
sg11
I15
sg30
I1
sg31
I1
sg15
I16
sg16
I15
sg32
I15
ssbag19
(g20
g21
(dp5206
tp5207
Rp5208
(dp5209
g12
S'101'
p5210
sg27
(dp5211
g29
I1
sg11
I15
sg30
I1
sg31
I1
sg15
I16
sg16
I15
sg32
I16
ssbag19
(g20
g21
(dp5212
tp5213
Rp5214
(dp5215
g12
S'103'
p5216
sg27
(dp5217
g29
I1
sg11
I17
sg30
I1
sg31
I1
sg15
I15
sg16
I12
sg32
I14
ssbasg32
I91
sba(i__main__
PhysicalMachine
p5218
(dp5219
g11
I91
sg12
S'5'
p5220
sg14
I00
sg15
I91
sg16
I89
sg17
(lp5221
g19
(g20
g21
(dp5222
tp5223
Rp5224
(dp5225
g12
S'27'
p5226
sg27
(dp5227
g29
I1
sg11
I15
sg30
I1
sg31
I1
sg15
I16
sg16
I15
sg32
I14
ssbag19
(g20
g21
(dp5228
tp5229
Rp5230
(dp5231
g12
S'50'
p5232
sg27
(dp5233
g29
I1
sg11
I16
sg30
I1
sg31
I1
sg15
I15
sg16
I14
sg32
I15
ssbag19
(g20
g21
(dp5234
tp5235
Rp5236
(dp5237
g12
S'51'
p5238
sg27
(dp5239
g29
I1
sg11
I14
sg30
I1
sg31
I1
sg15
I13
sg16
I15
sg32
I16
ssbag19
(g20
g21
(dp5240
tp5241
Rp5242
(dp5243
g12
S'72'
p5244
sg27
(dp5245
g29
I1
sg11
I14
sg30
I1
sg31
I1
sg15
I15
sg16
I16
sg32
I15
ssbag19
(g20
g21
(dp5246
tp5247
Rp5248
(dp5249
g12
S'86'
p5250
sg27
(dp5251
g29
I1
sg11
I17
sg30
I1
sg31
I1
sg15
I15
sg16
I14
sg32
I15
ssbag19
(g20
g21
(dp5252
tp5253
Rp5254
(dp5255
g12
S'109'
p5256
sg27
(dp5257
g29
I1
sg11
I15
sg30
I1
sg31
I1
sg15
I17
sg16
I15
sg32
I17
ssbasg32
I92
sba(i__main__
PhysicalMachine
p5258
(dp5259
g11
I90
sg12
S'6'
p5260
sg14
I00
sg15
I88
sg16
I90
sg17
(lp5261
g19
(g20
g21
(dp5262
tp5263
Rp5264
(dp5265
g12
S'11'
p5266
sg27
(dp5267
g29
I1
sg11
I15
sg30
I1
sg31
I1
sg15
I14
sg16
I13
sg32
I15
ssbag19
(g20
g21
(dp5268
tp5269
Rp5270
(dp5271
g12
S'35'
p5272
sg27
(dp5273
g29
I1
sg11
I14
sg30
I1
sg31
I1
sg15
I15
sg16
I14
sg32
I17
ssbag19
(g20
g21
(dp5274
tp5275
Rp5276
(dp5277
g12
S'58'
p5278
sg27
(dp5279
g29
I1
sg11
I16
sg30
I1
sg31
I1
sg15
I15
sg16
I17
sg32
I17
ssbag19
(g20
g21
(dp5280
tp5281
Rp5282
(dp5283
g12
S'67'
p5284
sg27
(dp5285
g29
I1
sg11
I15
sg30
I1
sg31
I1
sg15
I16
sg16
I16
sg32
I12
ssbag19
(g20
g21
(dp5286
tp5287
Rp5288
(dp5289
g12
S'69'
p5290
sg27
(dp5291
g29
I1
sg11
I15
sg30
I1
sg31
I1
sg15
I15
sg16
I15
sg32
I16
ssbag19
(g20
g21
(dp5292
tp5293
Rp5294
(dp5295
g12
S'83'
p5296
sg27
(dp5297
g29
I1
sg11
I15
sg30
I1
sg31
I1
sg15
I13
sg16
I15
sg32
I14
ssbasg32
I91
sba(i__main__
PhysicalMachine
p5298
(dp5299
g11
I90
sg12
S'7'
p5300
sg14
I00
sg15
I91
sg16
I90
sg17
(lp5301
g19
(g20
g21
(dp5302
tp5303
Rp5304
(dp5305
g12
S'34'
p5306
sg27
(dp5307
g29
I1
sg11
I15
sg30
I1
sg31
I1
sg15
I16
sg16
I14
sg32
I15
ssbag19
(g20
g21
(dp5308
tp5309
Rp5310
(dp5311
g12
S'37'
p5312
sg27
(dp5313
g29
I1
sg11
I15
sg30
I1
sg31
I1
sg15
I17
sg16
I17
sg32
I15
ssbag19
(g20
g21
(dp5314
tp5315
Rp5316
(dp5317
g12
S'57'
p5318
sg27
(dp5319
g29
I1
sg11
I15
sg30
I1
sg31
I1
sg15
I15
sg16
I14
sg32
I13
ssbag19
(g20
g21
(dp5320
tp5321
Rp5322
(dp5323
g12
S'61'
p5324
sg27
(dp5325
g29
I1
sg11
I14
sg30
I1
sg31
I1
sg15
I15
sg16
I15
sg32
I16
ssbag19
(g20
g21
(dp5326
tp5327
Rp5328
(dp5329
g12
S'68'
p5330
sg27
(dp5331
g29
I1
sg11
I15
sg30
I1
sg31
I1
sg15
I13
sg16
I15
sg32
I16
ssbag19
(g20
g21
(dp5332
tp5333
Rp5334
(dp5335
g12
S'74'
p5336
sg27
(dp5337
g29
I1
sg11
I16
sg30
I1
sg31
I1
sg15
I15
sg16
I15
sg32
I16
ssbasg32
I91
sba(i__main__
PhysicalMachine
p5338
(dp5339
g11
I88
sg12
S'8'
p5340
sg14
I00
sg15
I93
sg16
I91
sg17
(lp5341
g19
(g20
g21
(dp5342
tp5343
Rp5344
(dp5345
g12
S'30'
p5346
sg27
(dp5347
g29
I1
sg11
I14
sg30
I1
sg31
I1
sg15
I17
sg16
I14
sg32
I15
ssbag19
(g20
g21
(dp5348
tp5349
Rp5350
(dp5351
g12
S'39'
p5352
sg27
(dp5353
g29
I1
sg11
I16
sg30
I1
sg31
I1
sg15
I14
sg16
I16
sg32
I13
ssbag19
(g20
g21
(dp5354
tp5355
Rp5356
(dp5357
g12
S'53'
p5358
sg27
(dp5359
g29
I1
sg11
I13
sg30
I1
sg31
I1
sg15
I16
sg16
I15
sg32
I16
ssbag19
(g20
g21
(dp5360
tp5361
Rp5362
(dp5363
g12
S'66'
p5364
sg27
(dp5365
g29
I1
sg11
I15
sg30
I1
sg31
I1
sg15
I15
sg16
I15
sg32
I15
ssbag19
(g20
g21
(dp5366
tp5367
Rp5368
(dp5369
g12
S'95'
p5370
sg27
(dp5371
g29
I1
sg11
I15
sg30
I1
sg31
I1
sg15
I15
sg16
I16
sg32
I14
ssbag19
(g20
g21
(dp5372
tp5373
Rp5374
(dp5375
g12
S'105'
p5376
sg27
(dp5377
g29
I1
sg11
I15
sg30
I1
sg31
I1
sg15
I16
sg16
I15
sg32
I15
ssbasg32
I88
sba(i__main__
PhysicalMachine
p5378
(dp5379
g11
I92
sg12
S'9'
p5380
sg14
I00
sg15
I90
sg16
I88
sg17
(lp5381
g19
(g20
g21
(dp5382
tp5383
Rp5384
(dp5385
g12
S'2'
p5386
sg27
(dp5387
g29
I1
sg11
I15
sg30
I1
sg31
I1
sg15
I16
sg16
I15
sg32
I16
ssbag19
(g20
g21
(dp5388
tp5389
Rp5390
(dp5391
g12
S'17'
p5392
sg27
(dp5393
g29
I1
sg11
I16
sg30
I1
sg31
I1
sg15
I15
sg16
I14
sg32
I14
ssbag19
(g20
g21
(dp5394
tp5395
Rp5396
(dp5397
g12
S'38'
p5398
sg27
(dp5399
g29
I1
sg11
I16
sg30
I1
sg31
I1
sg15
I14
sg16
I16
sg32
I15
ssbag19
(g20
g21
(dp5400
tp5401
Rp5402
(dp5403
g12
S'49'
p5404
sg27
(dp5405
g29
I1
sg11
I16
sg30
I1
sg31
I1
sg15
I16
sg16
I14
sg32
I16
ssbag19
(g20
g21
(dp5406
tp5407
Rp5408
(dp5409
g12
S'89'
p5410
sg27
(dp5411
g29
I1
sg11
I14
sg30
I1
sg31
I1
sg15
I14
sg16
I16
sg32
I15
ssbag19
(g20
g21
(dp5412
tp5413
Rp5414
(dp5415
g12
S'94'
p5416
sg27
(dp5417
g29
I1
sg11
I15
sg30
I1
sg31
I1
sg15
I15
sg16
I13
sg32
I16
ssbasg32
I92
sba(i__main__
PhysicalMachine
p5418
(dp5419
g11
I90
sg12
S'10'
p5420
sg14
I00
sg15
I90
sg16
I88
sg17
(lp5421
g19
(g20
g21
(dp5422
tp5423
Rp5424
(dp5425
g12
S'4'
p5426
sg27
(dp5427
g29
I1
sg11
I15
sg30
I1
sg31
I1
sg15
I14
sg16
I13
sg32
I16
ssbag19
(g20
g21
(dp5428
tp5429
Rp5430
(dp5431
g12
S'14'
p5432
sg27
(dp5433
g29
I1
sg11
I14
sg30
I1
sg31
I1
sg15
I15
sg16
I15
sg32
I17
ssbag19
(g20
g21
(dp5434
tp5435
Rp5436
(dp5437
g12
S'22'
p5438
sg27
(dp5439
g29
I1
sg11
I13
sg30
I1
sg31
I1
sg15
I16
sg16
I15
sg32
I15
ssbag19
(g20
g21
(dp5440
tp5441
Rp5442
(dp5443
g12
S'54'
p5444
sg27
(dp5445
g29
I1
sg11
I16
sg30
I1
sg31
I1
sg15
I14
sg16
I16
sg32
I15
ssbag19
(g20
g21
(dp5446
tp5447
Rp5448
(dp5449
g12
S'75'
p5450
sg27
(dp5451
g29
I1
sg11
I16
sg30
I1
sg31
I1
sg15
I15
sg16
I14
sg32
I16
ssbag19
(g20
g21
(dp5452
tp5453
Rp5454
(dp5455
g12
S'98'
p5456
sg27
(dp5457
g29
I1
sg11
I16
sg30
I1
sg31
I1
sg15
I16
sg16
I15
sg32
I15
ssbasg32
I94
sba(i__main__
PhysicalMachine
p5458
(dp5459
g11
I93
sg12
S'11'
p5460
sg14
I00
sg15
I92
sg16
I94
sg17
(lp5461
g19
(g20
g21
(dp5462
tp5463
Rp5464
(dp5465
g12
S'0'
p5466
sg27
(dp5467
g29
I1
sg11
I16
sg30
I1
sg31
I1
sg15
I15
sg16
I15
sg32
I14
ssbag19
(g20
g21
(dp5468
tp5469
Rp5470
(dp5471
g12
S'19'
p5472
sg27
(dp5473
g29
I1
sg11
I15
sg30
I1
sg31
I1
sg15
I16
sg16
I16
sg32
I15
ssbag19
(g20
g21
(dp5474
tp5475
Rp5476
(dp5477
g12
S'46'
p5478
sg27
(dp5479
g29
I1
sg11
I15
sg30
I1
sg31
I1
sg15
I13
sg16
I16
sg32
I15
ssbag19
(g20
g21
(dp5480
tp5481
Rp5482
(dp5483
g12
S'55'
p5484
sg27
(dp5485
g29
I1
sg11
I16
sg30
I1
sg31
I1
sg15
I16
sg16
I15
sg32
I15
ssbag19
(g20
g21
(dp5486
tp5487
Rp5488
(dp5489
g12
S'64'
p5490
sg27
(dp5491
g29
I1
sg11
I15
sg30
I1
sg31
I1
sg15
I16
sg16
I16
sg32
I13
ssbag19
(g20
g21
(dp5492
tp5493
Rp5494
(dp5495
g12
S'84'
p5496
sg27
(dp5497
g29
I1
sg11
I16
sg30
I1
sg31
I1
sg15
I16
sg16
I16
sg32
I14
ssbasg32
I86
sba(i__main__
PhysicalMachine
p5498
(dp5499
g11
I89
sg12
S'12'
p5500
sg14
I00
sg15
I95
sg16
I94
sg17
(lp5501
g19
(g20
g21
(dp5502
tp5503
Rp5504
(dp5505
g12
S'3'
p5506
sg27
(dp5507
g29
I1
sg11
I14
sg30
I1
sg31
I1
sg15
I16
sg16
I15
sg32
I16
ssbag19
(g20
g21
(dp5508
tp5509
Rp5510
(dp5511
g12
S'5'
p5512
sg27
(dp5513
g29
I1
sg11
I16
sg30
I1
sg31
I1
sg15
I16
sg16
I16
sg32
I16
ssbag19
(g20
g21
(dp5514
tp5515
Rp5516
(dp5517
g12
S'40'
p5518
sg27
(dp5519
g29
I1
sg11
I15
sg30
I1
sg31
I1
sg15
I16
sg16
I16
sg32
I16
ssbag19
(g20
g21
(dp5520
tp5521
Rp5522
(dp5523
g12
S'63'
p5524
sg27
(dp5525
g29
I1
sg11
I16
sg30
I1
sg31
I1
sg15
I14
sg16
I16
sg32
I16
ssbag19
(g20
g21
(dp5526
tp5527
Rp5528
(dp5529
g12
S'104'
p5530
sg27
(dp5531
g29
I1
sg11
I15
sg30
I1
sg31
I1
sg15
I17
sg16
I15
sg32
I15
ssbag19
(g20
g21
(dp5532
tp5533
Rp5534
(dp5535
g12
S'111'
p5536
sg27
(dp5537
g29
I1
sg11
I13
sg30
I1
sg31
I1
sg15
I16
sg16
I16
sg32
I14
ssbasg32
I93
sba(i__main__
PhysicalMachine
p5538
(dp5539
g11
I94
sg12
S'13'
p5540
sg14
I00
sg15
I90
sg16
I92
sg17
(lp5541
g19
(g20
g21
(dp5542
tp5543
Rp5544
(dp5545
g12
S'1'
p5546
sg27
(dp5547
g29
I1
sg11
I16
sg30
I1
sg31
I1
sg15
I16
sg16
I14
sg32
I15
ssbag19
(g20
g21
(dp5548
tp5549
Rp5550
(dp5551
g12
S'43'
p5552
sg27
(dp5553
g29
I1
sg11
I15
sg30
I1
sg31
I1
sg15
I15
sg16
I15
sg32
I15
ssbag19
(g20
g21
(dp5554
tp5555
Rp5556
(dp5557
g12
S'60'
p5558
sg27
(dp5559
g29
I1
sg11
I17
sg30
I1
sg31
I1
sg15
I15
sg16
I16
sg32
I16
ssbag19
(g20
g21
(dp5560
tp5561
Rp5562
(dp5563
g12
S'71'
p5564
sg27
(dp5565
g29
I1
sg11
I16
sg30
I1
sg31
I1
sg15
I15
sg16
I16
sg32
I14
ssbag19
(g20
g21
(dp5566
tp5567
Rp5568
(dp5569
g12
S'87'
p5570
sg27
(dp5571
g29
I1
sg11
I15
sg30
I1
sg31
I1
sg15
I15
sg16
I16
sg32
I13
ssbag19
(g20
g21
(dp5572
tp5573
Rp5574
(dp5575
g12
S'106'
p5576
sg27
(dp5577
g29
I1
sg11
I15
sg30
I1
sg31
I1
sg15
I14
sg16
I15
sg32
I16
ssbasg32
I89
sba(i__main__
PhysicalMachine
p5578
(dp5579
g11
I93
sg12
S'14'
p5580
sg14
I00
sg15
I83
sg16
I94
sg17
(lp5581
g19
(g20
g21
(dp5582
tp5583
Rp5584
(dp5585
g12
S'15'
p5586
sg27
(dp5587
g29
I1
sg11
I16
sg30
I1
sg31
I1
sg15
I13
sg16
I15
sg32
I15
ssbag19
(g20
g21
(dp5588
tp5589
Rp5590
(dp5591
g12
S'24'
p5592
sg27
(dp5593
g29
I1
sg11
I15
sg30
I1
sg31
I1
sg15
I13
sg16
I16
sg32
I16
ssbag19
(g20
g21
(dp5594
tp5595
Rp5596
(dp5597
g12
S'26'
p5598
sg27
(dp5599
g29
I1
sg11
I15
sg30
I1
sg31
I1
sg15
I15
sg16
I16
sg32
I16
ssbag19
(g20
g21
(dp5600
tp5601
Rp5602
(dp5603
g12
S'33'
p5604
sg27
(dp5605
g29
I1
sg11
I15
sg30
I1
sg31
I1
sg15
I15
sg16
I16
sg32
I15
ssbag19
(g20
g21
(dp5606
tp5607
Rp5608
(dp5609
g12
S'48'
p5610
sg27
(dp5611
g29
I1
sg11
I16
sg30
I1
sg31
I1
sg15
I14
sg16
I16
sg32
I16
ssbag19
(g20
g21
(dp5612
tp5613
Rp5614
(dp5615
g12
S'76'
p5616
sg27
(dp5617
g29
I1
sg11
I16
sg30
I1
sg31
I1
sg15
I13
sg16
I15
sg32
I14
ssbasg32
I92
sba(i__main__
PhysicalMachine
p5618
(dp5619
g11
I89
sg12
S'15'
p5620
sg14
I00
sg15
I92
sg16
I93
sg17
(lp5621
g19
(g20
g21
(dp5622
tp5623
Rp5624
(dp5625
g12
S'28'
p5626
sg27
(dp5627
g29
I1
sg11
I15
sg30
I1
sg31
I1
sg15
I15
sg16
I15
sg32
I15
ssbag19
(g20
g21
(dp5628
tp5629
Rp5630
(dp5631
g12
S'62'
p5632
sg27
(dp5633
g29
I1
sg11
I15
sg30
I1
sg31
I1
sg15
I16
sg16
I17
sg32
I14
ssbag19
(g20
g21
(dp5634
tp5635
Rp5636
(dp5637
g12
S'80'
p5638
sg27
(dp5639
g29
I1
sg11
I15
sg30
I1
sg31
I1
sg15
I16
sg16
I15
sg32
I16
ssbag19
(g20
g21
(dp5640
tp5641
Rp5642
(dp5643
g12
S'85'
p5644
sg27
(dp5645
g29
I1
sg11
I15
sg30
I1
sg31
I1
sg15
I14
sg16
I16
sg32
I17
ssbag19
(g20
g21
(dp5646
tp5647
Rp5648
(dp5649
g12
S'88'
p5650
sg27
(dp5651
g29
I1
sg11
I14
sg30
I1
sg31
I1
sg15
I15
sg16
I15
sg32
I15
ssbag19
(g20
g21
(dp5652
tp5653
Rp5654
(dp5655
g12
S'91'
p5656
sg27
(dp5657
g29
I1
sg11
I15
sg30
I1
sg31
I1
sg15
I16
sg16
I15
sg32
I16
ssbasg32
I93
sba(i__main__
PhysicalMachine
p5658
(dp5659
g11
I88
sg12
S'16'
p5660
sg14
I00
sg15
I95
sg16
I92
sg17
(lp5661
g19
(g20
g21
(dp5662
tp5663
Rp5664
(dp5665
g12
S'13'
p5666
sg27
(dp5667
g29
I1
sg11
I16
sg30
I1
sg31
I1
sg15
I17
sg16
I14
sg32
I15
ssbag19
(g20
g21
(dp5668
tp5669
Rp5670
(dp5671
g12
S'31'
p5672
sg27
(dp5673
g29
I1
sg11
I12
sg30
I1
sg31
I1
sg15
I14
sg16
I15
sg32
I17
ssbag19
(g20
g21
(dp5674
tp5675
Rp5676
(dp5677
g12
S'41'
p5678
sg27
(dp5679
g29
I1
sg11
I16
sg30
I1
sg31
I1
sg15
I15
sg16
I17
sg32
I13
ssbag19
(g20
g21
(dp5680
tp5681
Rp5682
(dp5683
g12
S'65'
p5684
sg27
(dp5685
g29
I1
sg11
I16
sg30
I1
sg31
I1
sg15
I17
sg16
I15
sg32
I16
ssbag19
(g20
g21
(dp5686
tp5687
Rp5688
(dp5689
g12
S'70'
p5690
sg27
(dp5691
g29
I1
sg11
I13
sg30
I1
sg31
I1
sg15
I17
sg16
I16
sg32
I14
ssbag19
(g20
g21
(dp5692
tp5693
Rp5694
(dp5695
g12
S'108'
p5696
sg27
(dp5697
g29
I1
sg11
I15
sg30
I1
sg31
I1
sg15
I15
sg16
I15
sg32
I15
ssbasg32
I90
sba(i__main__
PhysicalMachine
p5698
(dp5699
g11
I93
sg12
S'17'
p5700
sg14
I00
sg15
I86
sg16
I93
sg17
(lp5701
g19
(g20
g21
(dp5702
tp5703
Rp5704
(dp5705
g12
S'6'
p5706
sg27
(dp5707
g29
I1
sg11
I15
sg30
I1
sg31
I1
sg15
I15
sg16
I15
sg32
I16
ssbag19
(g20
g21
(dp5708
tp5709
Rp5710
(dp5711
g12
S'10'
p5712
sg27
(dp5713
g29
I1
sg11
I15
sg30
I1
sg31
I1
sg15
I15
sg16
I16
sg32
I15
ssbag19
(g20
g21
(dp5714
tp5715
Rp5716
(dp5717
g12
S'47'
p5718
sg27
(dp5719
g29
I1
sg11
I17
sg30
I1
sg31
I1
sg15
I13
sg16
I16
sg32
I16
ssbag19
(g20
g21
(dp5720
tp5721
Rp5722
(dp5723
g12
S'73'
p5724
sg27
(dp5725
g29
I1
sg11
I15
sg30
I1
sg31
I1
sg15
I14
sg16
I16
sg32
I16
ssbag19
(g20
g21
(dp5726
tp5727
Rp5728
(dp5729
g12
S'81'
p5730
sg27
(dp5731
g29
I1
sg11
I16
sg30
I1
sg31
I1
sg15
I15
sg16
I14
sg32
I16
ssbag19
(g20
g21
(dp5732
tp5733
Rp5734
(dp5735
g12
S'97'
p5736
sg27
(dp5737
g29
I1
sg11
I15
sg30
I1
sg31
I1
sg15
I14
sg16
I16
sg32
I16
ssbasg32
I95
sba(i__main__
PhysicalMachine
p5738
(dp5739
g11
I63
sg12
S'18'
p5740
sg14
I00
sg15
I62
sg16
I62
sg17
(lp5741
g19
(g20
g21
(dp5742
tp5743
Rp5744
(dp5745
g12
S'16'
p5746
sg27
(dp5747
g29
I1
sg11
I15
sg30
I1
sg31
I1
sg15
I15
sg16
I15
sg32
I14
ssbag19
(g20
g21
(dp5748
tp5749
Rp5750
(dp5751
g12
S'21'
p5752
sg27
(dp5753
g29
I1
sg11
I16
sg30
I1
sg31
I1
sg15
I15
sg16
I16
sg32
I15
ssbag19
(g20
g21
(dp5754
tp5755
Rp5756
(dp5757
g12
S'77'
p5758
sg27
(dp5759
g29
I1
sg11
I16
sg30
I1
sg31
I1
sg15
I16
sg16
I16
sg32
I16
ssbag19
(g20
g21
(dp5760
tp5761
Rp5762
(dp5763
g12
S'96'
p5764
sg27
(dp5765
g29
I1
sg11
I16
sg30
I1
sg31
I1
sg15
I16
sg16
I15
sg32
I13
ssbasg32
I58
sba(i__main__
PhysicalMachine
p5766
(dp5767
g11
I0
sg12
S'19'
p5768
sg14
I01
sg15
I0
sg16
I0
sg17
(lp5769
sg32
I0
sba(i__main__
PhysicalMachine
p5770
(dp5771
g11
I0
sg12
S'20'
p5772
sg14
I01
sg15
I0
sg16
I0
sg17
(lp5773
sg32
I0
sba(i__main__
PhysicalMachine
p5774
(dp5775
g11
I0
sg12
S'21'
p5776
sg14
I01
sg15
I0
sg16
I0
sg17
(lp5777
sg32
I0
sba(i__main__
PhysicalMachine
p5778
(dp5779
g11
I0
sg12
S'22'
p5780
sg14
I01
sg15
I0
sg16
I0
sg17
(lp5781
sg32
I0
sba(i__main__
PhysicalMachine
p5782
(dp5783
g11
I0
sg12
S'23'
p5784
sg14
I01
sg15
I0
sg16
I0
sg17
(lp5785
sg32
I0
sba(i__main__
PhysicalMachine
p5786
(dp5787
g11
I0
sg12
S'24'
p5788
sg14
I01
sg15
I0
sg16
I0
sg17
(lp5789
sg32
I0
sba(i__main__
PhysicalMachine
p5790
(dp5791
g11
I0
sg12
S'25'
p5792
sg14
I01
sg15
I0
sg16
I0
sg17
(lp5793
sg32
I0
sba(i__main__
PhysicalMachine
p5794
(dp5795
g11
I0
sg12
S'26'
p5796
sg14
I01
sg15
I0
sg16
I0
sg17
(lp5797
sg32
I0
sba(i__main__
PhysicalMachine
p5798
(dp5799
g11
I0
sg12
S'27'
p5800
sg14
I01
sg15
I0
sg16
I0
sg17
(lp5801
sg32
I0
sba(i__main__
PhysicalMachine
p5802
(dp5803
g11
I0
sg12
S'28'
p5804
sg14
I01
sg15
I0
sg16
I0
sg17
(lp5805
sg32
I0
sba(i__main__
PhysicalMachine
p5806
(dp5807
g11
I0
sg12
S'29'
p5808
sg14
I01
sg15
I0
sg16
I0
sg17
(lp5809
sg32
I0
sba(i__main__
PhysicalMachine
p5810
(dp5811
g11
I0
sg12
S'30'
p5812
sg14
I01
sg15
I0
sg16
I0
sg17
(lp5813
sg32
I0
sba(i__main__
PhysicalMachine
p5814
(dp5815
g11
I0
sg12
S'31'
p5816
sg14
I01
sg15
I0
sg16
I0
sg17
(lp5817
sg32
I0
sba(i__main__
PhysicalMachine
p5818
(dp5819
g11
I0
sg12
S'32'
p5820
sg14
I01
sg15
I0
sg16
I0
sg17
(lp5821
sg32
I0
sba(i__main__
PhysicalMachine
p5822
(dp5823
g11
I0
sg12
S'33'
p5824
sg14
I01
sg15
I0
sg16
I0
sg17
(lp5825
sg32
I0
sba(i__main__
PhysicalMachine
p5826
(dp5827
g11
I0
sg12
S'34'
p5828
sg14
I01
sg15
I0
sg16
I0
sg17
(lp5829
sg32
I0
sba(i__main__
PhysicalMachine
p5830
(dp5831
g11
I0
sg12
S'35'
p5832
sg14
I01
sg15
I0
sg16
I0
sg17
(lp5833
sg32
I0
sba(i__main__
PhysicalMachine
p5834
(dp5835
g11
I0
sg12
S'36'
p5836
sg14
I01
sg15
I0
sg16
I0
sg17
(lp5837
sg32
I0
sba(i__main__
PhysicalMachine
p5838
(dp5839
g11
I0
sg12
S'37'
p5840
sg14
I01
sg15
I0
sg16
I0
sg17
(lp5841
sg32
I0
sba(i__main__
PhysicalMachine
p5842
(dp5843
g11
I0
sg12
S'38'
p5844
sg14
I01
sg15
I0
sg16
I0
sg17
(lp5845
sg32
I0
sba(i__main__
PhysicalMachine
p5846
(dp5847
g11
I0
sg12
S'39'
p5848
sg14
I01
sg15
I0
sg16
I0
sg17
(lp5849
sg32
I0
sba(i__main__
PhysicalMachine
p5850
(dp5851
g11
I0
sg12
S'40'
p5852
sg14
I01
sg15
I0
sg16
I0
sg17
(lp5853
sg32
I0
sba(i__main__
PhysicalMachine
p5854
(dp5855
g11
I0
sg12
S'41'
p5856
sg14
I01
sg15
I0
sg16
I0
sg17
(lp5857
sg32
I0
sba(i__main__
PhysicalMachine
p5858
(dp5859
g11
I0
sg12
S'42'
p5860
sg14
I01
sg15
I0
sg16
I0
sg17
(lp5861
sg32
I0
sba(i__main__
PhysicalMachine
p5862
(dp5863
g11
I0
sg12
S'43'
p5864
sg14
I01
sg15
I0
sg16
I0
sg17
(lp5865
sg32
I0
sba(i__main__
PhysicalMachine
p5866
(dp5867
g11
I0
sg12
S'44'
p5868
sg14
I01
sg15
I0
sg16
I0
sg17
(lp5869
sg32
I0
sba(i__main__
PhysicalMachine
p5870
(dp5871
g11
I0
sg12
S'45'
p5872
sg14
I01
sg15
I0
sg16
I0
sg17
(lp5873
sg32
I0
sba(i__main__
PhysicalMachine
p5874
(dp5875
g11
I0
sg12
S'46'
p5876
sg14
I01
sg15
I0
sg16
I0
sg17
(lp5877
sg32
I0
sba(i__main__
PhysicalMachine
p5878
(dp5879
g11
I0
sg12
S'47'
p5880
sg14
I01
sg15
I0
sg16
I0
sg17
(lp5881
sg32
I0
sba(i__main__
PhysicalMachine
p5882
(dp5883
g11
I0
sg12
S'48'
p5884
sg14
I01
sg15
I0
sg16
I0
sg17
(lp5885
sg32
I0
sba(i__main__
PhysicalMachine
p5886
(dp5887
g11
I0
sg12
S'49'
p5888
sg14
I01
sg15
I0
sg16
I0
sg17
(lp5889
sg32
I0
sba(i__main__
PhysicalMachine
p5890
(dp5891
g11
I0
sg12
S'50'
p5892
sg14
I01
sg15
I0
sg16
I0
sg17
(lp5893
sg32
I0
sba(i__main__
PhysicalMachine
p5894
(dp5895
g11
I0
sg12
S'51'
p5896
sg14
I01
sg15
I0
sg16
I0
sg17
(lp5897
sg32
I0
sba(i__main__
PhysicalMachine
p5898
(dp5899
g11
I0
sg12
S'52'
p5900
sg14
I01
sg15
I0
sg16
I0
sg17
(lp5901
sg32
I0
sba(i__main__
PhysicalMachine
p5902
(dp5903
g11
I0
sg12
S'53'
p5904
sg14
I01
sg15
I0
sg16
I0
sg17
(lp5905
sg32
I0
sba(i__main__
PhysicalMachine
p5906
(dp5907
g11
I0
sg12
S'54'
p5908
sg14
I01
sg15
I0
sg16
I0
sg17
(lp5909
sg32
I0
sba(i__main__
PhysicalMachine
p5910
(dp5911
g11
I0
sg12
S'55'
p5912
sg14
I01
sg15
I0
sg16
I0
sg17
(lp5913
sg32
I0
sba(i__main__
PhysicalMachine
p5914
(dp5915
g11
I0
sg12
S'56'
p5916
sg14
I01
sg15
I0
sg16
I0
sg17
(lp5917
sg32
I0
sba(i__main__
PhysicalMachine
p5918
(dp5919
g11
I0
sg12
S'57'
p5920
sg14
I01
sg15
I0
sg16
I0
sg17
(lp5921
sg32
I0
sba(i__main__
PhysicalMachine
p5922
(dp5923
g11
I0
sg12
S'58'
p5924
sg14
I01
sg15
I0
sg16
I0
sg17
(lp5925
sg32
I0
sba(i__main__
PhysicalMachine
p5926
(dp5927
g11
I0
sg12
S'59'
p5928
sg14
I01
sg15
I0
sg16
I0
sg17
(lp5929
sg32
I0
sba(i__main__
PhysicalMachine
p5930
(dp5931
g11
I0
sg12
S'60'
p5932
sg14
I01
sg15
I0
sg16
I0
sg17
(lp5933
sg32
I0
sba(i__main__
PhysicalMachine
p5934
(dp5935
g11
I0
sg12
S'61'
p5936
sg14
I01
sg15
I0
sg16
I0
sg17
(lp5937
sg32
I0
sba(i__main__
PhysicalMachine
p5938
(dp5939
g11
I0
sg12
S'62'
p5940
sg14
I01
sg15
I0
sg16
I0
sg17
(lp5941
sg32
I0
sba(i__main__
PhysicalMachine
p5942
(dp5943
g11
I0
sg12
S'63'
p5944
sg14
I01
sg15
I0
sg16
I0
sg17
(lp5945
sg32
I0
sba(i__main__
PhysicalMachine
p5946
(dp5947
g11
I0
sg12
S'64'
p5948
sg14
I01
sg15
I0
sg16
I0
sg17
(lp5949
sg32
I0
sba(i__main__
PhysicalMachine
p5950
(dp5951
g11
I0
sg12
S'65'
p5952
sg14
I01
sg15
I0
sg16
I0
sg17
(lp5953
sg32
I0
sba(i__main__
PhysicalMachine
p5954
(dp5955
g11
I0
sg12
S'66'
p5956
sg14
I01
sg15
I0
sg16
I0
sg17
(lp5957
sg32
I0
sba(i__main__
PhysicalMachine
p5958
(dp5959
g11
I0
sg12
S'67'
p5960
sg14
I01
sg15
I0
sg16
I0
sg17
(lp5961
sg32
I0
sba(i__main__
PhysicalMachine
p5962
(dp5963
g11
I0
sg12
S'68'
p5964
sg14
I01
sg15
I0
sg16
I0
sg17
(lp5965
sg32
I0
sba(i__main__
PhysicalMachine
p5966
(dp5967
g11
I0
sg12
S'69'
p5968
sg14
I01
sg15
I0
sg16
I0
sg17
(lp5969
sg32
I0
sba(i__main__
PhysicalMachine
p5970
(dp5971
g11
I0
sg12
S'70'
p5972
sg14
I01
sg15
I0
sg16
I0
sg17
(lp5973
sg32
I0
sba(i__main__
PhysicalMachine
p5974
(dp5975
g11
I0
sg12
S'71'
p5976
sg14
I01
sg15
I0
sg16
I0
sg17
(lp5977
sg32
I0
sbasbsg407
F4744.36
sg408
F1383314049.813155
sg409
I19
sg410
g411
sg1589
F6.388848066329956
sg1590
I112
sg1591
(i__main__
Manager
p5978
(dp5979
g1585
(i__main__
VMManager
p5980
(dp5981
g7
(lp5982
sbsg4
(lp5983
sg1598
I112
sg410
g411
sg1599
I72
sg413
g5015
sbsg1600
F1383314056.202003
sg1601
I112
sg1602
I0
sg1603
I72
sa(dp5984
g2
I50
sg3
I0
sg4
(i__main__
PMManager
p5985
(dp5986
g7
(lp5987
(i__main__
PhysicalMachine
p5988
(dp5989
g11
I77
sg12
S'0'
p5990
sg14
I00
sg15
I73
sg16
I79
sg17
(lp5991
g19
(g20
g21
(dp5992
tp5993
Rp5994
(dp5995
g12
S'33'
p5996
sg27
(dp5997
g29
I1
sg11
I15
sg30
I1
sg31
I1
sg15
I15
sg16
I16
sg32
I15
ssbag19
(g20
g21
(dp5998
tp5999
Rp6000
(dp6001
g12
S'47'
p6002
sg27
(dp6003
g29
I1
sg11
I17
sg30
I1
sg31
I1
sg15
I13
sg16
I16
sg32
I16
ssbag19
(g20
g21
(dp6004
tp6005
Rp6006
(dp6007
g12
S'51'
p6008
sg27
(dp6009
g29
I1
sg11
I14
sg30
I1
sg31
I1
sg15
I13
sg16
I15
sg32
I16
ssbag19
(g20
g21
(dp6010
tp6011
Rp6012
(dp6013
g12
S'92'
p6014
sg27
(dp6015
g29
I1
sg11
I16
sg30
I1
sg31
I1
sg15
I16
sg16
I16
sg32
I15
ssbag19
(g20
g21
(dp6016
tp6017
Rp6018
(dp6019
g12
S'93'
p6020
sg27
(dp6021
g29
I1
sg11
I15
sg30
I1
sg31
I1
sg15
I16
sg16
I16
sg32
I15
ssbasg32
I77
sba(i__main__
PhysicalMachine
p6022
(dp6023
g11
I92
sg12
S'1'
p6024
sg14
I00
sg15
I92
sg16
I91
sg17
(lp6025
g19
(g20
g21
(dp6026
tp6027
Rp6028
(dp6029
g12
S'27'
p6030
sg27
(dp6031
g29
I1
sg11
I15
sg30
I1
sg31
I1
sg15
I16
sg16
I15
sg32
I14
ssbag19
(g20
g21
(dp6032
tp6033
Rp6034
(dp6035
g12
S'59'
p6036
sg27
(dp6037
g29
I1
sg11
I16
sg30
I1
sg31
I1
sg15
I16
sg16
I15
sg32
I16
ssbag19
(g20
g21
(dp6038
tp6039
Rp6040
(dp6041
g12
S'67'
p6042
sg27
(dp6043
g29
I1
sg11
I15
sg30
I1
sg31
I1
sg15
I16
sg16
I16
sg32
I12
ssbag19
(g20
g21
(dp6044
tp6045
Rp6046
(dp6047
g12
S'71'
p6048
sg27
(dp6049
g29
I1
sg11
I16
sg30
I1
sg31
I1
sg15
I15
sg16
I16
sg32
I14
ssbag19
(g20
g21
(dp6050
tp6051
Rp6052
(dp6053
g12
S'73'
p6054
sg27
(dp6055
g29
I1
sg11
I15
sg30
I1
sg31
I1
sg15
I14
sg16
I16
sg32
I16
ssbag19
(g20
g21
(dp6056
tp6057
Rp6058
(dp6059
g12
S'94'
p6060
sg27
(dp6061
g29
I1
sg11
I15
sg30
I1
sg31
I1
sg15
I15
sg16
I13
sg32
I16
ssbasg32
I88
sba(i__main__
PhysicalMachine
p6062
(dp6063
g11
I90
sg12
S'2'
p6064
sg14
I00
sg15
I93
sg16
I90
sg17
(lp6065
g19
(g20
g21
(dp6066
tp6067
Rp6068
(dp6069
g12
S'7'
p6070
sg27
(dp6071
g29
I1
sg11
I15
sg30
I1
sg31
I1
sg15
I14
sg16
I16
sg32
I15
ssbag19
(g20
g21
(dp6072
tp6073
Rp6074
(dp6075
g12
S'9'
p6076
sg27
(dp6077
g29
I1
sg11
I14
sg30
I1
sg31
I1
sg15
I16
sg16
I15
sg32
I16
ssbag19
(g20
g21
(dp6078
tp6079
Rp6080
(dp6081
g12
S'49'
p6082
sg27
(dp6083
g29
I1
sg11
I16
sg30
I1
sg31
I1
sg15
I16
sg16
I14
sg32
I16
ssbag19
(g20
g21
(dp6084
tp6085
Rp6086
(dp6087
g12
S'80'
p6088
sg27
(dp6089
g29
I1
sg11
I15
sg30
I1
sg31
I1
sg15
I16
sg16
I15
sg32
I16
ssbag19
(g20
g21
(dp6090
tp6091
Rp6092
(dp6093
g12
S'82'
p6094
sg27
(dp6095
g29
I1
sg11
I15
sg30
I1
sg31
I1
sg15
I16
sg16
I15
sg32
I15
ssbag19
(g20
g21
(dp6096
tp6097
Rp6098
(dp6099
g12
S'108'
p6100
sg27
(dp6101
g29
I1
sg11
I15
sg30
I1
sg31
I1
sg15
I15
sg16
I15
sg32
I15
ssbasg32
I93
sba(i__main__
PhysicalMachine
p6102
(dp6103
g11
I90
sg12
S'3'
p6104
sg14
I00
sg15
I85
sg16
I90
sg17
(lp6105
g19
(g20
g21
(dp6106
tp6107
Rp6108
(dp6109
g12
S'11'
p6110
sg27
(dp6111
g29
I1
sg11
I15
sg30
I1
sg31
I1
sg15
I14
sg16
I13
sg32
I15
ssbag19
(g20
g21
(dp6112
tp6113
Rp6114
(dp6115
g12
S'24'
p6116
sg27
(dp6117
g29
I1
sg11
I15
sg30
I1
sg31
I1
sg15
I13
sg16
I16
sg32
I16
ssbag19
(g20
g21
(dp6118
tp6119
Rp6120
(dp6121
g12
S'48'
p6122
sg27
(dp6123
g29
I1
sg11
I16
sg30
I1
sg31
I1
sg15
I14
sg16
I16
sg32
I16
ssbag19
(g20
g21
(dp6124
tp6125
Rp6126
(dp6127
g12
S'52'
p6128
sg27
(dp6129
g29
I1
sg11
I15
sg30
I1
sg31
I1
sg15
I15
sg16
I14
sg32
I16
ssbag19
(g20
g21
(dp6130
tp6131
Rp6132
(dp6133
g12
S'89'
p6134
sg27
(dp6135
g29
I1
sg11
I14
sg30
I1
sg31
I1
sg15
I14
sg16
I16
sg32
I15
ssbag19
(g20
g21
(dp6136
tp6137
Rp6138
(dp6139
g12
S'115'
p6140
sg27
(dp6141
g29
I1
sg11
I15
sg30
I1
sg31
I1
sg15
I15
sg16
I15
sg32
I15
ssbasg32
I93
sba(i__main__
PhysicalMachine
p6142
(dp6143
g11
I91
sg12
S'4'
p6144
sg14
I00
sg15
I98
sg16
I91
sg17
(lp6145
g19
(g20
g21
(dp6146
tp6147
Rp6148
(dp6149
g12
S'30'
p6150
sg27
(dp6151
g29
I1
sg11
I14
sg30
I1
sg31
I1
sg15
I17
sg16
I14
sg32
I15
ssbag19
(g20
g21
(dp6152
tp6153
Rp6154
(dp6155
g12
S'37'
p6156
sg27
(dp6157
g29
I1
sg11
I15
sg30
I1
sg31
I1
sg15
I17
sg16
I17
sg32
I15
ssbag19
(g20
g21
(dp6158
tp6159
Rp6160
(dp6161
g12
S'65'
p6162
sg27
(dp6163
g29
I1
sg11
I16
sg30
I1
sg31
I1
sg15
I17
sg16
I15
sg32
I16
ssbag19
(g20
g21
(dp6164
tp6165
Rp6166
(dp6167
g12
S'96'
p6168
sg27
(dp6169
g29
I1
sg11
I16
sg30
I1
sg31
I1
sg15
I16
sg16
I15
sg32
I13
ssbag19
(g20
g21
(dp6170
tp6171
Rp6172
(dp6173
g12
S'99'
p6174
sg27
(dp6175
g29
I1
sg11
I14
sg30
I1
sg31
I1
sg15
I15
sg16
I15
sg32
I16
ssbag19
(g20
g21
(dp6176
tp6177
Rp6178
(dp6179
g12
S'112'
p6180
sg27
(dp6181
g29
I1
sg11
I16
sg30
I1
sg31
I1
sg15
I16
sg16
I15
sg32
I16
ssbasg32
I91
sba(i__main__
PhysicalMachine
p6182
(dp6183
g11
I90
sg12
S'5'
p6184
sg14
I00
sg15
I91
sg16
I91
sg17
(lp6185
g19
(g20
g21
(dp6186
tp6187
Rp6188
(dp6189
g12
S'3'
p6190
sg27
(dp6191
g29
I1
sg11
I14
sg30
I1
sg31
I1
sg15
I16
sg16
I15
sg32
I16
ssbag19
(g20
g21
(dp6192
tp6193
Rp6194
(dp6195
g12
S'16'
p6196
sg27
(dp6197
g29
I1
sg11
I15
sg30
I1
sg31
I1
sg15
I15
sg16
I15
sg32
I14
ssbag19
(g20
g21
(dp6198
tp6199
Rp6200
(dp6201
g12
S'21'
p6202
sg27
(dp6203
g29
I1
sg11
I16
sg30
I1
sg31
I1
sg15
I15
sg16
I16
sg32
I15
ssbag19
(g20
g21
(dp6204
tp6205
Rp6206
(dp6207
g12
S'66'
p6208
sg27
(dp6209
g29
I1
sg11
I15
sg30
I1
sg31
I1
sg15
I15
sg16
I15
sg32
I15
ssbag19
(g20
g21
(dp6210
tp6211
Rp6212
(dp6213
g12
S'72'
p6214
sg27
(dp6215
g29
I1
sg11
I14
sg30
I1
sg31
I1
sg15
I15
sg16
I16
sg32
I15
ssbag19
(g20
g21
(dp6216
tp6217
Rp6218
(dp6219
g12
S'123'
p6220
sg27
(dp6221
g29
I1
sg11
I16
sg30
I1
sg31
I1
sg15
I15
sg16
I14
sg32
I13
ssbasg32
I88
sba(i__main__
PhysicalMachine
p6222
(dp6223
g11
I91
sg12
S'6'
p6224
sg14
I00
sg15
I90
sg16
I92
sg17
(lp6225
g19
(g20
g21
(dp6226
tp6227
Rp6228
(dp6229
g12
S'50'
p6230
sg27
(dp6231
g29
I1
sg11
I16
sg30
I1
sg31
I1
sg15
I15
sg16
I14
sg32
I15
ssbag19
(g20
g21
(dp6232
tp6233
Rp6234
(dp6235
g12
S'53'
p6236
sg27
(dp6237
g29
I1
sg11
I13
sg30
I1
sg31
I1
sg15
I16
sg16
I15
sg32
I16
ssbag19
(g20
g21
(dp6238
tp6239
Rp6240
(dp6241
g12
S'78'
p6242
sg27
(dp6243
g29
I1
sg11
I16
sg30
I1
sg31
I1
sg15
I15
sg16
I15
sg32
I15
ssbag19
(g20
g21
(dp6244
tp6245
Rp6246
(dp6247
g12
S'87'
p6248
sg27
(dp6249
g29
I1
sg11
I15
sg30
I1
sg31
I1
sg15
I15
sg16
I16
sg32
I13
ssbag19
(g20
g21
(dp6250
tp6251
Rp6252
(dp6253
g12
S'121'
p6254
sg27
(dp6255
g29
I1
sg11
I16
sg30
I1
sg31
I1
sg15
I14
sg16
I16
sg32
I16
ssbag19
(g20
g21
(dp6256
tp6257
Rp6258
(dp6259
g12
S'127'
p6260
sg27
(dp6261
g29
I1
sg11
I15
sg30
I1
sg31
I1
sg15
I15
sg16
I16
sg32
I16
ssbasg32
I91
sba(i__main__
PhysicalMachine
p6262
(dp6263
g11
I90
sg12
S'7'
p6264
sg14
I00
sg15
I94
sg16
I87
sg17
(lp6265
g19
(g20
g21
(dp6266
tp6267
Rp6268
(dp6269
g12
S'1'
p6270
sg27
(dp6271
g29
I1
sg11
I16
sg30
I1
sg31
I1
sg15
I16
sg16
I14
sg32
I15
ssbag19
(g20
g21
(dp6272
tp6273
Rp6274
(dp6275
g12
S'13'
p6276
sg27
(dp6277
g29
I1
sg11
I16
sg30
I1
sg31
I1
sg15
I17
sg16
I14
sg32
I15
ssbag19
(g20
g21
(dp6278
tp6279
Rp6280
(dp6281
g12
S'31'
p6282
sg27
(dp6283
g29
I1
sg11
I12
sg30
I1
sg31
I1
sg15
I14
sg16
I15
sg32
I17
ssbag19
(g20
g21
(dp6284
tp6285
Rp6286
(dp6287
g12
S'75'
p6288
sg27
(dp6289
g29
I1
sg11
I16
sg30
I1
sg31
I1
sg15
I15
sg16
I14
sg32
I16
ssbag19
(g20
g21
(dp6290
tp6291
Rp6292
(dp6293
g12
S'100'
p6294
sg27
(dp6295
g29
I1
sg11
I15
sg30
I1
sg31
I1
sg15
I15
sg16
I15
sg32
I15
ssbag19
(g20
g21
(dp6296
tp6297
Rp6298
(dp6299
g12
S'104'
p6300
sg27
(dp6301
g29
I1
sg11
I15
sg30
I1
sg31
I1
sg15
I17
sg16
I15
sg32
I15
ssbasg32
I93
sba(i__main__
PhysicalMachine
p6302
(dp6303
g11
I89
sg12
S'8'
p6304
sg14
I00
sg15
I91
sg16
I87
sg17
(lp6305
g19
(g20
g21
(dp6306
tp6307
Rp6308
(dp6309
g12
S'22'
p6310
sg27
(dp6311
g29
I1
sg11
I13
sg30
I1
sg31
I1
sg15
I16
sg16
I15
sg32
I15
ssbag19
(g20
g21
(dp6312
tp6313
Rp6314
(dp6315
g12
S'35'
p6316
sg27
(dp6317
g29
I1
sg11
I14
sg30
I1
sg31
I1
sg15
I15
sg16
I14
sg32
I17
ssbag19
(g20
g21
(dp6318
tp6319
Rp6320
(dp6321
g12
S'45'
p6322
sg27
(dp6323
g29
I1
sg11
I15
sg30
I1
sg31
I1
sg15
I16
sg16
I14
sg32
I16
ssbag19
(g20
g21
(dp6324
tp6325
Rp6326
(dp6327
g12
S'101'
p6328
sg27
(dp6329
g29
I1
sg11
I15
sg30
I1
sg31
I1
sg15
I16
sg16
I15
sg32
I16
ssbag19
(g20
g21
(dp6330
tp6331
Rp6332
(dp6333
g12
S'106'
p6334
sg27
(dp6335
g29
I1
sg11
I15
sg30
I1
sg31
I1
sg15
I14
sg16
I15
sg32
I16
ssbag19
(g20
g21
(dp6336
tp6337
Rp6338
(dp6339
g12
S'107'
p6340
sg27
(dp6341
g29
I1
sg11
I17
sg30
I1
sg31
I1
sg15
I14
sg16
I14
sg32
I15
ssbasg32
I95
sba(i__main__
PhysicalMachine
p6342
(dp6343
g11
I91
sg12
S'9'
p6344
sg14
I00
sg15
I95
sg16
I94
sg17
(lp6345
g19
(g20
g21
(dp6346
tp6347
Rp6348
(dp6349
g12
S'2'
p6350
sg27
(dp6351
g29
I1
sg11
I15
sg30
I1
sg31
I1
sg15
I16
sg16
I15
sg32
I16
ssbag19
(g20
g21
(dp6352
tp6353
Rp6354
(dp6355
g12
S'5'
p6356
sg27
(dp6357
g29
I1
sg11
I16
sg30
I1
sg31
I1
sg15
I16
sg16
I16
sg32
I16
ssbag19
(g20
g21
(dp6358
tp6359
Rp6360
(dp6361
g12
S'69'
p6362
sg27
(dp6363
g29
I1
sg11
I15
sg30
I1
sg31
I1
sg15
I15
sg16
I15
sg32
I16
ssbag19
(g20
g21
(dp6364
tp6365
Rp6366
(dp6367
g12
S'77'
p6368
sg27
(dp6369
g29
I1
sg11
I16
sg30
I1
sg31
I1
sg15
I16
sg16
I16
sg32
I16
ssbag19
(g20
g21
(dp6370
tp6371
Rp6372
(dp6373
g12
S'84'
p6374
sg27
(dp6375
g29
I1
sg11
I16
sg30
I1
sg31
I1
sg15
I16
sg16
I16
sg32
I14
ssbag19
(g20
g21
(dp6376
tp6377
Rp6378
(dp6379
g12
S'111'
p6380
sg27
(dp6381
g29
I1
sg11
I13
sg30
I1
sg31
I1
sg15
I16
sg16
I16
sg32
I14
ssbasg32
I92
sba(i__main__
PhysicalMachine
p6382
(dp6383
g11
I94
sg12
S'10'
p6384
sg14
I00
sg15
I94
sg16
I88
sg17
(lp6385
g19
(g20
g21
(dp6386
tp6387
Rp6388
(dp6389
g12
S'8'
p6390
sg27
(dp6391
g29
I1
sg11
I15
sg30
I1
sg31
I1
sg15
I16
sg16
I16
sg32
I15
ssbag19
(g20
g21
(dp6392
tp6393
Rp6394
(dp6395
g12
S'18'
p6396
sg27
(dp6397
g29
I1
sg11
I16
sg30
I1
sg31
I1
sg15
I17
sg16
I14
sg32
I16
ssbag19
(g20
g21
(dp6398
tp6399
Rp6400
(dp6401
g12
S'23'
p6402
sg27
(dp6403
g29
I1
sg11
I16
sg30
I1
sg31
I1
sg15
I14
sg16
I15
sg32
I15
ssbag19
(g20
g21
(dp6404
tp6405
Rp6406
(dp6407
g12
S'25'
p6408
sg27
(dp6409
g29
I1
sg11
I16
sg30
I1
sg31
I1
sg15
I16
sg16
I14
sg32
I15
ssbag19
(g20
g21
(dp6410
tp6411
Rp6412
(dp6413
g12
S'81'
p6414
sg27
(dp6415
g29
I1
sg11
I16
sg30
I1
sg31
I1
sg15
I15
sg16
I14
sg32
I16
ssbag19
(g20
g21
(dp6416
tp6417
Rp6418
(dp6419
g12
S'91'
p6420
sg27
(dp6421
g29
I1
sg11
I15
sg30
I1
sg31
I1
sg15
I16
sg16
I15
sg32
I16
ssbasg32
I93
sba(i__main__
PhysicalMachine
p6422
(dp6423
g11
I91
sg12
S'11'
p6424
sg14
I00
sg15
I88
sg16
I93
sg17
(lp6425
g19
(g20
g21
(dp6426
tp6427
Rp6428
(dp6429
g12
S'0'
p6430
sg27
(dp6431
g29
I1
sg11
I16
sg30
I1
sg31
I1
sg15
I15
sg16
I15
sg32
I14
ssbag19
(g20
g21
(dp6432
tp6433
Rp6434
(dp6435
g12
S'14'
p6436
sg27
(dp6437
g29
I1
sg11
I14
sg30
I1
sg31
I1
sg15
I15
sg16
I15
sg32
I17
ssbag19
(g20
g21
(dp6438
tp6439
Rp6440
(dp6441
g12
S'44'
p6442
sg27
(dp6443
g29
I1
sg11
I15
sg30
I1
sg31
I1
sg15
I14
sg16
I16
sg32
I13
ssbag19
(g20
g21
(dp6444
tp6445
Rp6446
(dp6447
g12
S'64'
p6448
sg27
(dp6449
g29
I1
sg11
I15
sg30
I1
sg31
I1
sg15
I16
sg16
I16
sg32
I13
ssbag19
(g20
g21
(dp6450
tp6451
Rp6452
(dp6453
g12
S'117'
p6454
sg27
(dp6455
g29
I1
sg11
I16
sg30
I1
sg31
I1
sg15
I14
sg16
I15
sg32
I16
ssbag19
(g20
g21
(dp6456
tp6457
Rp6458
(dp6459
g12
S'122'
p6460
sg27
(dp6461
g29
I1
sg11
I15
sg30
I1
sg31
I1
sg15
I14
sg16
I16
sg32
I15
ssbasg32
I88
sba(i__main__
PhysicalMachine
p6462
(dp6463
g11
I91
sg12
S'12'
p6464
sg14
I00
sg15
I90
sg16
I94
sg17
(lp6465
g19
(g20
g21
(dp6466
tp6467
Rp6468
(dp6469
g12
S'40'
p6470
sg27
(dp6471
g29
I1
sg11
I15
sg30
I1
sg31
I1
sg15
I16
sg16
I16
sg32
I16
ssbag19
(g20
g21
(dp6472
tp6473
Rp6474
(dp6475
g12
S'43'
p6476
sg27
(dp6477
g29
I1
sg11
I15
sg30
I1
sg31
I1
sg15
I15
sg16
I15
sg32
I15
ssbag19
(g20
g21
(dp6478
tp6479
Rp6480
(dp6481
g12
S'61'
p6482
sg27
(dp6483
g29
I1
sg11
I14
sg30
I1
sg31
I1
sg15
I15
sg16
I15
sg32
I16
ssbag19
(g20
g21
(dp6484
tp6485
Rp6486
(dp6487
g12
S'97'
p6488
sg27
(dp6489
g29
I1
sg11
I15
sg30
I1
sg31
I1
sg15
I14
sg16
I16
sg32
I16
ssbag19
(g20
g21
(dp6490
tp6491
Rp6492
(dp6493
g12
S'119'
p6494
sg27
(dp6495
g29
I1
sg11
I16
sg30
I1
sg31
I1
sg15
I16
sg16
I17
sg32
I13
ssbag19
(g20
g21
(dp6496
tp6497
Rp6498
(dp6499
g12
S'124'
p6500
sg27
(dp6501
g29
I1
sg11
I16
sg30
I1
sg31
I1
sg15
I14
sg16
I15
sg32
I15
ssbasg32
I91
sba(i__main__
PhysicalMachine
p6502
(dp6503
g11
I94
sg12
S'13'
p6504
sg14
I00
sg15
I90
sg16
I95
sg17
(lp6505
g19
(g20
g21
(dp6506
tp6507
Rp6508
(dp6509
g12
S'6'
p6510
sg27
(dp6511
g29
I1
sg11
I15
sg30
I1
sg31
I1
sg15
I15
sg16
I15
sg32
I16
ssbag19
(g20
g21
(dp6512
tp6513
Rp6514
(dp6515
g12
S'42'
p6516
sg27
(dp6517
g29
I1
sg11
I18
sg30
I1
sg31
I1
sg15
I16
sg16
I16
sg32
I16
ssbag19
(g20
g21
(dp6518
tp6519
Rp6520
(dp6521
g12
S'46'
p6522
sg27
(dp6523
g29
I1
sg11
I15
sg30
I1
sg31
I1
sg15
I13
sg16
I16
sg32
I15
ssbag19
(g20
g21
(dp6524
tp6525
Rp6526
(dp6527
g12
S'58'
p6528
sg27
(dp6529
g29
I1
sg11
I16
sg30
I1
sg31
I1
sg15
I15
sg16
I17
sg32
I17
ssbag19
(g20
g21
(dp6530
tp6531
Rp6532
(dp6533
g12
S'95'
p6534
sg27
(dp6535
g29
I1
sg11
I15
sg30
I1
sg31
I1
sg15
I15
sg16
I16
sg32
I14
ssbag19
(g20
g21
(dp6536
tp6537
Rp6538
(dp6539
g12
S'105'
p6540
sg27
(dp6541
g29
I1
sg11
I15
sg30
I1
sg31
I1
sg15
I16
sg16
I15
sg32
I15
ssbasg32
I93
sba(i__main__
PhysicalMachine
p6542
(dp6543
g11
I94
sg12
S'14'
p6544
sg14
I00
sg15
I89
sg16
I95
sg17
(lp6545
g19
(g20
g21
(dp6546
tp6547
Rp6548
(dp6549
g12
S'36'
p6550
sg27
(dp6551
g29
I1
sg11
I15
sg30
I1
sg31
I1
sg15
I15
sg16
I15
sg32
I15
ssbag19
(g20
g21
(dp6552
tp6553
Rp6554
(dp6555
g12
S'38'
p6556
sg27
(dp6557
g29
I1
sg11
I16
sg30
I1
sg31
I1
sg15
I14
sg16
I16
sg32
I15
ssbag19
(g20
g21
(dp6558
tp6559
Rp6560
(dp6561
g12
S'60'
p6562
sg27
(dp6563
g29
I1
sg11
I17
sg30
I1
sg31
I1
sg15
I15
sg16
I16
sg32
I16
ssbag19
(g20
g21
(dp6564
tp6565
Rp6566
(dp6567
g12
S'62'
p6568
sg27
(dp6569
g29
I1
sg11
I15
sg30
I1
sg31
I1
sg15
I16
sg16
I17
sg32
I14
ssbag19
(g20
g21
(dp6570
tp6571
Rp6572
(dp6573
g12
S'74'
p6574
sg27
(dp6575
g29
I1
sg11
I16
sg30
I1
sg31
I1
sg15
I15
sg16
I15
sg32
I16
ssbag19
(g20
g21
(dp6576
tp6577
Rp6578
(dp6579
g12
S'85'
p6580
sg27
(dp6581
g29
I1
sg11
I15
sg30
I1
sg31
I1
sg15
I14
sg16
I16
sg32
I17
ssbasg32
I93
sba(i__main__
PhysicalMachine
p6582
(dp6583
g11
I90
sg12
S'15'
p6584
sg14
I00
sg15
I91
sg16
I91
sg17
(lp6585
g19
(g20
g21
(dp6586
tp6587
Rp6588
(dp6589
g12
S'32'
p6590
sg27
(dp6591
g29
I1
sg11
I15
sg30
I1
sg31
I1
sg15
I15
sg16
I17
sg32
I15
ssbag19
(g20
g21
(dp6592
tp6593
Rp6594
(dp6595
g12
S'55'
p6596
sg27
(dp6597
g29
I1
sg11
I16
sg30
I1
sg31
I1
sg15
I16
sg16
I15
sg32
I15
ssbag19
(g20
g21
(dp6598
tp6599
Rp6600
(dp6601
g12
S'70'
p6602
sg27
(dp6603
g29
I1
sg11
I13
sg30
I1
sg31
I1
sg15
I17
sg16
I16
sg32
I14
ssbag19
(g20
g21
(dp6604
tp6605
Rp6606
(dp6607
g12
S'76'
p6608
sg27
(dp6609
g29
I1
sg11
I16
sg30
I1
sg31
I1
sg15
I13
sg16
I15
sg32
I14
ssbag19
(g20
g21
(dp6610
tp6611
Rp6612
(dp6613
g12
S'88'
p6614
sg27
(dp6615
g29
I1
sg11
I14
sg30
I1
sg31
I1
sg15
I15
sg16
I15
sg32
I15
ssbag19
(g20
g21
(dp6616
tp6617
Rp6618
(dp6619
g12
S'125'
p6620
sg27
(dp6621
g29
I1
sg11
I16
sg30
I1
sg31
I1
sg15
I15
sg16
I13
sg32
I16
ssbasg32
I89
sba(i__main__
PhysicalMachine
p6622
(dp6623
g11
I94
sg12
S'16'
p6624
sg14
I00
sg15
I90
sg16
I92
sg17
(lp6625
g19
(g20
g21
(dp6626
tp6627
Rp6628
(dp6629
g12
S'4'
p6630
sg27
(dp6631
g29
I1
sg11
I15
sg30
I1
sg31
I1
sg15
I14
sg16
I13
sg32
I16
ssbag19
(g20
g21
(dp6632
tp6633
Rp6634
(dp6635
g12
S'41'
p6636
sg27
(dp6637
g29
I1
sg11
I16
sg30
I1
sg31
I1
sg15
I15
sg16
I17
sg32
I13
ssbag19
(g20
g21
(dp6638
tp6639
Rp6640
(dp6641
g12
S'54'
p6642
sg27
(dp6643
g29
I1
sg11
I16
sg30
I1
sg31
I1
sg15
I14
sg16
I16
sg32
I15
ssbag19
(g20
g21
(dp6644
tp6645
Rp6646
(dp6647
g12
S'56'
p6648
sg27
(dp6649
g29
I1
sg11
I16
sg30
I1
sg31
I1
sg15
I17
sg16
I14
sg32
I13
ssbag19
(g20
g21
(dp6650
tp6651
Rp6652
(dp6653
g12
S'90'
p6654
sg27
(dp6655
g29
I1
sg11
I16
sg30
I1
sg31
I1
sg15
I14
sg16
I16
sg32
I17
ssbag19
(g20
g21
(dp6656
tp6657
Rp6658
(dp6659
g12
S'110'
p6660
sg27
(dp6661
g29
I1
sg11
I15
sg30
I1
sg31
I1
sg15
I16
sg16
I16
sg32
I14
ssbasg32
I88
sba(i__main__
PhysicalMachine
p6662
(dp6663
g11
I92
sg12
S'17'
p6664
sg14
I00
sg15
I89
sg16
I94
sg17
(lp6665
g19
(g20
g21
(dp6666
tp6667
Rp6668
(dp6669
g12
S'20'
p6670
sg27
(dp6671
g29
I1
sg11
I16
sg30
I1
sg31
I1
sg15
I15
sg16
I16
sg32
I16
ssbag19
(g20
g21
(dp6672
tp6673
Rp6674
(dp6675
g12
S'28'
p6676
sg27
(dp6677
g29
I1
sg11
I15
sg30
I1
sg31
I1
sg15
I15
sg16
I15
sg32
I15
ssbag19
(g20
g21
(dp6678
tp6679
Rp6680
(dp6681
g12
S'68'
p6682
sg27
(dp6683
g29
I1
sg11
I15
sg30
I1
sg31
I1
sg15
I13
sg16
I15
sg32
I16
ssbag19
(g20
g21
(dp6684
tp6685
Rp6686
(dp6687
g12
S'102'
p6688
sg27
(dp6689
g29
I1
sg11
I15
sg30
I1
sg31
I1
sg15
I14
sg16
I14
sg32
I17
ssbag19
(g20
g21
(dp6690
tp6691
Rp6692
(dp6693
g12
S'114'
p6694
sg27
(dp6695
g29
I1
sg11
I16
sg30
I1
sg31
I1
sg15
I16
sg16
I18
sg32
I16
ssbag19
(g20
g21
(dp6696
tp6697
Rp6698
(dp6699
g12
S'126'
p6700
sg27
(dp6701
g29
I1
sg11
I15
sg30
I1
sg31
I1
sg15
I16
sg16
I16
sg32
I14
ssbasg32
I94
sba(i__main__
PhysicalMachine
p6702
(dp6703
g11
I87
sg12
S'18'
p6704
sg14
I00
sg15
I91
sg16
I90
sg17
(lp6705
g19
(g20
g21
(dp6706
tp6707
Rp6708
(dp6709
g12
S'15'
p6710
sg27
(dp6711
g29
I1
sg11
I16
sg30
I1
sg31
I1
sg15
I13
sg16
I15
sg32
I15
ssbag19
(g20
g21
(dp6712
tp6713
Rp6714
(dp6715
g12
S'34'
p6716
sg27
(dp6717
g29
I1
sg11
I15
sg30
I1
sg31
I1
sg15
I16
sg16
I14
sg32
I15
ssbag19
(g20
g21
(dp6718
tp6719
Rp6720
(dp6721
g12
S'79'
p6722
sg27
(dp6723
g29
I1
sg11
I15
sg30
I1
sg31
I1
sg15
I16
sg16
I15
sg32
I14
ssbag19
(g20
g21
(dp6724
tp6725
Rp6726
(dp6727
g12
S'83'
p6728
sg27
(dp6729
g29
I1
sg11
I15
sg30
I1
sg31
I1
sg15
I13
sg16
I15
sg32
I14
ssbag19
(g20
g21
(dp6730
tp6731
Rp6732
(dp6733
g12
S'113'
p6734
sg27
(dp6735
g29
I1
sg11
I13
sg30
I1
sg31
I1
sg15
I17
sg16
I16
sg32
I15
ssbag19
(g20
g21
(dp6736
tp6737
Rp6738
(dp6739
g12
S'116'
p6740
sg27
(dp6741
g29
I1
sg11
I13
sg30
I1
sg31
I1
sg15
I16
sg16
I15
sg32
I14
ssbasg32
I87
sba(i__main__
PhysicalMachine
p6742
(dp6743
g11
I92
sg12
S'19'
p6744
sg14
I00
sg15
I93
sg16
I92
sg17
(lp6745
g19
(g20
g21
(dp6746
tp6747
Rp6748
(dp6749
g12
S'12'
p6750
sg27
(dp6751
g29
I1
sg11
I16
sg30
I1
sg31
I1
sg15
I14
sg16
I16
sg32
I16
ssbag19
(g20
g21
(dp6752
tp6753
Rp6754
(dp6755
g12
S'19'
p6756
sg27
(dp6757
g29
I1
sg11
I15
sg30
I1
sg31
I1
sg15
I16
sg16
I16
sg32
I15
ssbag19
(g20
g21
(dp6758
tp6759
Rp6760
(dp6761
g12
S'26'
p6762
sg27
(dp6763
g29
I1
sg11
I15
sg30
I1
sg31
I1
sg15
I15
sg16
I16
sg32
I16
ssbag19
(g20
g21
(dp6764
tp6765
Rp6766
(dp6767
g12
S'57'
p6768
sg27
(dp6769
g29
I1
sg11
I15
sg30
I1
sg31
I1
sg15
I15
sg16
I14
sg32
I13
ssbag19
(g20
g21
(dp6770
tp6771
Rp6772
(dp6773
g12
S'98'
p6774
sg27
(dp6775
g29
I1
sg11
I16
sg30
I1
sg31
I1
sg15
I16
sg16
I15
sg32
I15
ssbag19
(g20
g21
(dp6776
tp6777
Rp6778
(dp6779
g12
S'109'
p6780
sg27
(dp6781
g29
I1
sg11
I15
sg30
I1
sg31
I1
sg15
I17
sg16
I15
sg32
I17
ssbasg32
I92
sba(i__main__
PhysicalMachine
p6782
(dp6783
g11
I96
sg12
S'20'
p6784
sg14
I00
sg15
I90
sg16
I91
sg17
(lp6785
g19
(g20
g21
(dp6786
tp6787
Rp6788
(dp6789
g12
S'17'
p6790
sg27
(dp6791
g29
I1
sg11
I16
sg30
I1
sg31
I1
sg15
I15
sg16
I14
sg32
I14
ssbag19
(g20
g21
(dp6792
tp6793
Rp6794
(dp6795
g12
S'39'
p6796
sg27
(dp6797
g29
I1
sg11
I16
sg30
I1
sg31
I1
sg15
I14
sg16
I16
sg32
I13
ssbag19
(g20
g21
(dp6798
tp6799
Rp6800
(dp6801
g12
S'63'
p6802
sg27
(dp6803
g29
I1
sg11
I16
sg30
I1
sg31
I1
sg15
I14
sg16
I16
sg32
I16
ssbag19
(g20
g21
(dp6804
tp6805
Rp6806
(dp6807
g12
S'86'
p6808
sg27
(dp6809
g29
I1
sg11
I17
sg30
I1
sg31
I1
sg15
I15
sg16
I14
sg32
I15
ssbag19
(g20
g21
(dp6810
tp6811
Rp6812
(dp6813
g12
S'118'
p6814
sg27
(dp6815
g29
I1
sg11
I15
sg30
I1
sg31
I1
sg15
I16
sg16
I15
sg32
I13
ssbag19
(g20
g21
(dp6816
tp6817
Rp6818
(dp6819
g12
S'120'
p6820
sg27
(dp6821
g29
I1
sg11
I16
sg30
I1
sg31
I1
sg15
I16
sg16
I16
sg32
I14
ssbasg32
I85
sba(i__main__
PhysicalMachine
p6822
(dp6823
g11
I47
sg12
S'21'
p6824
sg14
I00
sg15
I46
sg16
I44
sg17
(lp6825
g19
(g20
g21
(dp6826
tp6827
Rp6828
(dp6829
g12
S'10'
p6830
sg27
(dp6831
g29
I1
sg11
I15
sg30
I1
sg31
I1
sg15
I15
sg16
I16
sg32
I15
ssbag19
(g20
g21
(dp6832
tp6833
Rp6834
(dp6835
g12
S'29'
p6836
sg27
(dp6837
g29
I1
sg11
I15
sg30
I1
sg31
I1
sg15
I16
sg16
I16
sg32
I15
ssbag19
(g20
g21
(dp6838
tp6839
Rp6840
(dp6841
g12
S'103'
p6842
sg27
(dp6843
g29
I1
sg11
I17
sg30
I1
sg31
I1
sg15
I15
sg16
I12
sg32
I14
ssbasg32
I44
sba(i__main__
PhysicalMachine
p6844
(dp6845
g11
I0
sg12
S'22'
p6846
sg14
I01
sg15
I0
sg16
I0
sg17
(lp6847
sg32
I0
sba(i__main__
PhysicalMachine
p6848
(dp6849
g11
I0
sg12
S'23'
p6850
sg14
I01
sg15
I0
sg16
I0
sg17
(lp6851
sg32
I0
sba(i__main__
PhysicalMachine
p6852
(dp6853
g11
I0
sg12
S'24'
p6854
sg14
I01
sg15
I0
sg16
I0
sg17
(lp6855
sg32
I0
sba(i__main__
PhysicalMachine
p6856
(dp6857
g11
I0
sg12
S'25'
p6858
sg14
I01
sg15
I0
sg16
I0
sg17
(lp6859
sg32
I0
sba(i__main__
PhysicalMachine
p6860
(dp6861
g11
I0
sg12
S'26'
p6862
sg14
I01
sg15
I0
sg16
I0
sg17
(lp6863
sg32
I0
sba(i__main__
PhysicalMachine
p6864
(dp6865
g11
I0
sg12
S'27'
p6866
sg14
I01
sg15
I0
sg16
I0
sg17
(lp6867
sg32
I0
sba(i__main__
PhysicalMachine
p6868
(dp6869
g11
I0
sg12
S'28'
p6870
sg14
I01
sg15
I0
sg16
I0
sg17
(lp6871
sg32
I0
sba(i__main__
PhysicalMachine
p6872
(dp6873
g11
I0
sg12
S'29'
p6874
sg14
I01
sg15
I0
sg16
I0
sg17
(lp6875
sg32
I0
sba(i__main__
PhysicalMachine
p6876
(dp6877
g11
I0
sg12
S'30'
p6878
sg14
I01
sg15
I0
sg16
I0
sg17
(lp6879
sg32
I0
sba(i__main__
PhysicalMachine
p6880
(dp6881
g11
I0
sg12
S'31'
p6882
sg14
I01
sg15
I0
sg16
I0
sg17
(lp6883
sg32
I0
sba(i__main__
PhysicalMachine
p6884
(dp6885
g11
I0
sg12
S'32'
p6886
sg14
I01
sg15
I0
sg16
I0
sg17
(lp6887
sg32
I0
sba(i__main__
PhysicalMachine
p6888
(dp6889
g11
I0
sg12
S'33'
p6890
sg14
I01
sg15
I0
sg16
I0
sg17
(lp6891
sg32
I0
sba(i__main__
PhysicalMachine
p6892
(dp6893
g11
I0
sg12
S'34'
p6894
sg14
I01
sg15
I0
sg16
I0
sg17
(lp6895
sg32
I0
sba(i__main__
PhysicalMachine
p6896
(dp6897
g11
I0
sg12
S'35'
p6898
sg14
I01
sg15
I0
sg16
I0
sg17
(lp6899
sg32
I0
sba(i__main__
PhysicalMachine
p6900
(dp6901
g11
I0
sg12
S'36'
p6902
sg14
I01
sg15
I0
sg16
I0
sg17
(lp6903
sg32
I0
sba(i__main__
PhysicalMachine
p6904
(dp6905
g11
I0
sg12
S'37'
p6906
sg14
I01
sg15
I0
sg16
I0
sg17
(lp6907
sg32
I0
sba(i__main__
PhysicalMachine
p6908
(dp6909
g11
I0
sg12
S'38'
p6910
sg14
I01
sg15
I0
sg16
I0
sg17
(lp6911
sg32
I0
sba(i__main__
PhysicalMachine
p6912
(dp6913
g11
I0
sg12
S'39'
p6914
sg14
I01
sg15
I0
sg16
I0
sg17
(lp6915
sg32
I0
sba(i__main__
PhysicalMachine
p6916
(dp6917
g11
I0
sg12
S'40'
p6918
sg14
I01
sg15
I0
sg16
I0
sg17
(lp6919
sg32
I0
sba(i__main__
PhysicalMachine
p6920
(dp6921
g11
I0
sg12
S'41'
p6922
sg14
I01
sg15
I0
sg16
I0
sg17
(lp6923
sg32
I0
sba(i__main__
PhysicalMachine
p6924
(dp6925
g11
I0
sg12
S'42'
p6926
sg14
I01
sg15
I0
sg16
I0
sg17
(lp6927
sg32
I0
sba(i__main__
PhysicalMachine
p6928
(dp6929
g11
I0
sg12
S'43'
p6930
sg14
I01
sg15
I0
sg16
I0
sg17
(lp6931
sg32
I0
sba(i__main__
PhysicalMachine
p6932
(dp6933
g11
I0
sg12
S'44'
p6934
sg14
I01
sg15
I0
sg16
I0
sg17
(lp6935
sg32
I0
sba(i__main__
PhysicalMachine
p6936
(dp6937
g11
I0
sg12
S'45'
p6938
sg14
I01
sg15
I0
sg16
I0
sg17
(lp6939
sg32
I0
sba(i__main__
PhysicalMachine
p6940
(dp6941
g11
I0
sg12
S'46'
p6942
sg14
I01
sg15
I0
sg16
I0
sg17
(lp6943
sg32
I0
sba(i__main__
PhysicalMachine
p6944
(dp6945
g11
I0
sg12
S'47'
p6946
sg14
I01
sg15
I0
sg16
I0
sg17
(lp6947
sg32
I0
sba(i__main__
PhysicalMachine
p6948
(dp6949
g11
I0
sg12
S'48'
p6950
sg14
I01
sg15
I0
sg16
I0
sg17
(lp6951
sg32
I0
sba(i__main__
PhysicalMachine
p6952
(dp6953
g11
I0
sg12
S'49'
p6954
sg14
I01
sg15
I0
sg16
I0
sg17
(lp6955
sg32
I0
sba(i__main__
PhysicalMachine
p6956
(dp6957
g11
I0
sg12
S'50'
p6958
sg14
I01
sg15
I0
sg16
I0
sg17
(lp6959
sg32
I0
sba(i__main__
PhysicalMachine
p6960
(dp6961
g11
I0
sg12
S'51'
p6962
sg14
I01
sg15
I0
sg16
I0
sg17
(lp6963
sg32
I0
sba(i__main__
PhysicalMachine
p6964
(dp6965
g11
I0
sg12
S'52'
p6966
sg14
I01
sg15
I0
sg16
I0
sg17
(lp6967
sg32
I0
sba(i__main__
PhysicalMachine
p6968
(dp6969
g11
I0
sg12
S'53'
p6970
sg14
I01
sg15
I0
sg16
I0
sg17
(lp6971
sg32
I0
sba(i__main__
PhysicalMachine
p6972
(dp6973
g11
I0
sg12
S'54'
p6974
sg14
I01
sg15
I0
sg16
I0
sg17
(lp6975
sg32
I0
sba(i__main__
PhysicalMachine
p6976
(dp6977
g11
I0
sg12
S'55'
p6978
sg14
I01
sg15
I0
sg16
I0
sg17
(lp6979
sg32
I0
sba(i__main__
PhysicalMachine
p6980
(dp6981
g11
I0
sg12
S'56'
p6982
sg14
I01
sg15
I0
sg16
I0
sg17
(lp6983
sg32
I0
sba(i__main__
PhysicalMachine
p6984
(dp6985
g11
I0
sg12
S'57'
p6986
sg14
I01
sg15
I0
sg16
I0
sg17
(lp6987
sg32
I0
sba(i__main__
PhysicalMachine
p6988
(dp6989
g11
I0
sg12
S'58'
p6990
sg14
I01
sg15
I0
sg16
I0
sg17
(lp6991
sg32
I0
sba(i__main__
PhysicalMachine
p6992
(dp6993
g11
I0
sg12
S'59'
p6994
sg14
I01
sg15
I0
sg16
I0
sg17
(lp6995
sg32
I0
sba(i__main__
PhysicalMachine
p6996
(dp6997
g11
I0
sg12
S'60'
p6998
sg14
I01
sg15
I0
sg16
I0
sg17
(lp6999
sg32
I0
sba(i__main__
PhysicalMachine
p7000
(dp7001
g11
I0
sg12
S'61'
p7002
sg14
I01
sg15
I0
sg16
I0
sg17
(lp7003
sg32
I0
sba(i__main__
PhysicalMachine
p7004
(dp7005
g11
I0
sg12
S'62'
p7006
sg14
I01
sg15
I0
sg16
I0
sg17
(lp7007
sg32
I0
sba(i__main__
PhysicalMachine
p7008
(dp7009
g11
I0
sg12
S'63'
p7010
sg14
I01
sg15
I0
sg16
I0
sg17
(lp7011
sg32
I0
sba(i__main__
PhysicalMachine
p7012
(dp7013
g11
I0
sg12
S'64'
p7014
sg14
I01
sg15
I0
sg16
I0
sg17
(lp7015
sg32
I0
sba(i__main__
PhysicalMachine
p7016
(dp7017
g11
I0
sg12
S'65'
p7018
sg14
I01
sg15
I0
sg16
I0
sg17
(lp7019
sg32
I0
sba(i__main__
PhysicalMachine
p7020
(dp7021
g11
I0
sg12
S'66'
p7022
sg14
I01
sg15
I0
sg16
I0
sg17
(lp7023
sg32
I0
sba(i__main__
PhysicalMachine
p7024
(dp7025
g11
I0
sg12
S'67'
p7026
sg14
I01
sg15
I0
sg16
I0
sg17
(lp7027
sg32
I0
sba(i__main__
PhysicalMachine
p7028
(dp7029
g11
I0
sg12
S'68'
p7030
sg14
I01
sg15
I0
sg16
I0
sg17
(lp7031
sg32
I0
sba(i__main__
PhysicalMachine
p7032
(dp7033
g11
I0
sg12
S'69'
p7034
sg14
I01
sg15
I0
sg16
I0
sg17
(lp7035
sg32
I0
sba(i__main__
PhysicalMachine
p7036
(dp7037
g11
I0
sg12
S'70'
p7038
sg14
I01
sg15
I0
sg16
I0
sg17
(lp7039
sg32
I0
sba(i__main__
PhysicalMachine
p7040
(dp7041
g11
I0
sg12
S'71'
p7042
sg14
I01
sg15
I0
sg16
I0
sg17
(lp7043
sg32
I0
sbasbsg407
F5393.679999999999
sg408
F1383314056.202021
sg409
I22
sg410
g411
sg1589
F7.935585021972656
sg1590
I128
sg1591
(i__main__
Manager
p7044
(dp7045
g1585
(i__main__
VMManager
p7046
(dp7047
g7
(lp7048
sbsg4
(lp7049
sg1598
I128
sg410
g411
sg1599
I72
sg413
g5985
sbsg1600
F1383314064.137606
sg1601
I128
sg1602
I0
sg1603
I72
sa(dp7050
g2
I46
sg3
I0
sg4
g414
sg407
F6165.599999999999
sg408
F1383314064.137623
sg409
I26
sg410
g411
sg1589
F10.489275932312012
sg1590
I144
sg1591
(i__main__
Manager
p7051
(dp7052
g1585
g1586
sg4
(lp7053
sg1598
I144
sg410
g411
sg1599
I72
sg413
g414
sbsg1600
F1383314074.626899
sg1601
I144
sg1602
I0
sg1603
I72
sa.